(dp0
S'./Data/Provider/ds101_ops_write.csv'
p1
(dp2
S'RankProgressive'
p3
(dp4
S'min_rank'
p5
(lp6
I3
aI3
aI3
aI3
aI3
aI3
aI3
aI3
aI3
aI3
aI3
aI3
aI3
aI3
aI3
aI3
aI3
aI3
aI7
aI3
asS'training_size'
p7
(lp8
I23
aI25
aI33
aI38
aI22
aI22
aI22
aI22
aI22
aI25
aI25
aI37
aI37
aI25
aI22
aI26
aI26
aI27
aI69
aI23
asS'mmre'
p9
(lp10
F34.577000000000005
aF34.343
aF30.558000000000003
aF30.497999999999998
aF34.099000000000004
aF34.685
aF33.793
aF34.205000000000005
aF34.685
aF34.821000000000005
aF41.784
aF31.324999999999996
aF31.804
aF41.766999999999996
aF34.512
aF35.251
aF40.893
aF29.720999999999997
aF14.995
aF34.510000000000005
asS'abs_diff'
p11
(lp12
cnumpy.core.multiarray
scalar
p13
(cnumpy
dtype
p14
(S'f8'
p15
I0
I1
tp16
Rp17
(I3
S'<'
p18
NNNI-1
I-1
I0
tp19
bS'\x06\xbd\xbb\xbe(o\xa9@'
p20
tp21
Rp22
ag13
(g17
S'\x06\x08I\x13\x03\xea\xb1@'
p23
tp24
Rp25
ag13
(g17
S'0/<\x06X\xa9\xa8@'
p26
tp27
Rp28
ag13
(g17
S'3y5\x06X\xb7\xa9@'
p29
tp30
Rp31
ag13
(g17
S'\x94\xe3-\xdb\xef\xbc\xa9@'
p32
tp33
Rp34
ag13
(g17
S'Nw\t\x14~W\xaa@'
p35
tp36
Rp37
ag13
(g17
S'`\x93^i\xd3p\xaa@'
p38
tp39
Rp40
ag13
(g17
S'(\xf15\xdbo_\xa9@'
p41
tp42
Rp43
ag13
(g17
S'Nw\t\x14~W\xaa@'
p44
tp45
Rp46
ag13
(g17
S'\x86\xb1\x1a\x85\x1f\x89\xab@'
p47
tp48
Rp49
ag13
(g17
S'w<\xda\xf6;\xea\xb1@'
p50
tp51
Rp52
ag13
(g17
S'\x19\x81\x0cx\xf4\xcb\xa8@'
p53
tp54
Rp55
ag13
(g17
S'qW\xaf"\x1f\x10\xa9@'
p56
tp57
Rp58
ag13
(g17
S'\xbc\x01\xea\xf6\xbb\x92\xab@'
p59
tp60
Rp61
ag13
(g17
S'\xe8\xca\xda\x85\x1a\xc6\xa9@'
p62
tp63
Rp64
ag13
(g17
S'<V\x00\xbe-+\xab@'
p65
tp66
Rp67
ag13
(g17
S'\xca|r\xda\xf4x\xab@'
p68
tp69
Rp70
ag13
(g17
S'.r&\xd8\x03`\xa8@'
p71
tp72
Rp73
ag13
(g17
S'\x005RBR\xb6\x98@'
p74
tp75
Rp76
ag13
(g17
S'Z\xa4hiSx\xa9@'
p77
tp78
Rp79
assS'FactorialDesign'
p80
(dp81
g5
(lp82
I1
aI1
aI0
aI0
aI0
aI0
aI1
aI1
aI0
aI0
aI1
aI1
aI0
aI1
aI1
aI0
aI1
aI1
aI1
aI1
asg7
(lp83
I32
aI32
aI32
aI32
aI32
aI32
aI32
aI32
aI32
aI32
aI32
aI32
aI32
aI32
aI32
aI32
aI32
aI32
aI32
aI32
asg9
(lp84
F54.961000000000006
aF50.361
aF58.74700000000001
aF44.318999999999996
aF44.318999999999996
aF52.723
aF58.74700000000001
aF44.318999999999996
aF60.985
aF50.361
aF52.723
aF60.985
aF52.076
aF60.985
aF58.74700000000001
aF44.318999999999996
aF58.74700000000001
aF50.361
aF44.318999999999996
aF52.076
asg11
(lp85
g13
(g17
S'\x84\x9d\x8bT\x1a\xcb\xc2@'
p86
tp87
Rp88
ag13
(g17
S'\x08\xd40\xb6\xdf\x18\xbb@'
p89
tp90
Rp91
ag13
(g17
S'\x04l0\xa2!\x1e\xc0@'
p92
tp93
Rp94
ag13
(g17
S'|\xb2\xc5\xe2=~\xc3@'
p95
tp96
Rp97
ag13
(g17
S'\x04l0\xa2!\x1e\xc0@'
p98
tp99
Rp100
ag13
(g17
S'\xad\tq\xfe\x89u\xbf@'
p101
tp102
Rp103
ag13
(g17
S'\xd0\x99r\x8d\xe8m\xc0@'
p104
tp105
Rp106
ag13
(g17
S'\xd0\x99r\x8d\xe8m\xc0@'
p107
tp108
Rp109
ag13
(g17
S'\xd0\x99r\x8d\xe8m\xc0@'
p110
tp111
Rp112
ag13
(g17
S'\x84\x9d\x8bT\x1a\xcb\xc2@'
p113
tp114
Rp115
ag13
(g17
S'\x08\xd40\xb6\xdf\x18\xbb@'
p116
tp117
Rp118
ag13
(g17
S'\xad\tq\xfe\x89u\xbf@'
p119
tp120
Rp121
ag13
(g17
S'|\xb2\xc5\xe2=~\xc3@'
p122
tp123
Rp124
ag13
(g17
S'\xbe\xfb\xdbL\x8c\xe8\xc0@'
p125
tp126
Rp127
ag13
(g17
S'\xd0\x99r\x8d\xe8m\xc0@'
p128
tp129
Rp130
ag13
(g17
S'\xd0\x99r\x8d\xe8m\xc0@'
p131
tp132
Rp133
ag13
(g17
S'\xbe\xfb\xdbL\x8c\xe8\xc0@'
p134
tp135
Rp136
ag13
(g17
S'\xd0\x99r\x8d\xe8m\xc0@'
p137
tp138
Rp139
ag13
(g17
S'\x04l0\xa2!\x1e\xc0@'
p140
tp141
Rp142
ag13
(g17
S'\x04l0\xa2!\x1e\xc0@'
p143
tp144
Rp145
assS'UseAll'
p146
(dp147
g5
(lp148
I1
aI1
aI1
aI1
aI1
aI1
aI1
aI1
aI1
aI1
aI1
aI1
aI1
aI1
aI1
aI1
aI1
aI1
aI1
aI1
asg7
(lp149
I420
aI420
aI420
aI420
aI420
aI420
aI420
aI420
aI420
aI420
aI420
aI420
aI420
aI420
aI420
aI420
aI420
aI420
aI420
aI420
asg9
(lp150
F4.003
aF4.003
aF4.003
aF4.003
aF4.003
aF4.003
aF4.003
aF4.003
aF4.003
aF4.003
aF4.003
aF4.003
aF4.003
aF4.003
aF4.003
aF4.003
aF4.003
aF4.003
aF4.003
aF4.003
asg11
(lp151
g13
(g17
S'B^\xe6\xa6C\xca\x82@'
p152
tp153
Rp154
ag13
(g17
S'B^\xe6\xa6C\xca\x82@'
p155
tp156
Rp157
ag13
(g17
S'B^\xe6\xa6C\xca\x82@'
p158
tp159
Rp160
ag13
(g17
S'B^\xe6\xa6C\xca\x82@'
p161
tp162
Rp163
ag13
(g17
S'B^\xe6\xa6C\xca\x82@'
p164
tp165
Rp166
ag13
(g17
S'B^\xe6\xa6C\xca\x82@'
p167
tp168
Rp169
ag13
(g17
S'B^\xe6\xa6C\xca\x82@'
p170
tp171
Rp172
ag13
(g17
S'B^\xe6\xa6C\xca\x82@'
p173
tp174
Rp175
ag13
(g17
S'B^\xe6\xa6C\xca\x82@'
p176
tp177
Rp178
ag13
(g17
S'B^\xe6\xa6C\xca\x82@'
p179
tp180
Rp181
ag13
(g17
S'B^\xe6\xa6C\xca\x82@'
p182
tp183
Rp184
ag13
(g17
S'B^\xe6\xa6C\xca\x82@'
p185
tp186
Rp187
ag13
(g17
S'B^\xe6\xa6C\xca\x82@'
p188
tp189
Rp190
ag13
(g17
S'B^\xe6\xa6C\xca\x82@'
p191
tp192
Rp193
ag13
(g17
S'B^\xe6\xa6C\xca\x82@'
p194
tp195
Rp196
ag13
(g17
S'B^\xe6\xa6C\xca\x82@'
p197
tp198
Rp199
ag13
(g17
S'B^\xe6\xa6C\xca\x82@'
p200
tp201
Rp202
ag13
(g17
S'B^\xe6\xa6C\xca\x82@'
p203
tp204
Rp205
ag13
(g17
S'B^\xe6\xa6C\xca\x82@'
p206
tp207
Rp208
ag13
(g17
S'B^\xe6\xa6C\xca\x82@'
p209
tp210
Rp211
assS'MMREProgressive'
p212
(dp213
g5
(lp214
I3
aI3
aI3
aI3
aI3
aI3
aI3
aI3
aI3
aI3
aI3
aI3
aI3
aI3
aI3
aI3
aI3
aI3
aI3
aI3
asg7
(lp215
I88
aI88
aI88
aI88
aI88
aI88
aI88
aI88
aI88
aI88
aI88
aI88
aI88
aI88
aI88
aI88
aI88
aI88
aI88
aI88
asg9
(lp216
F11.65
aF11.504
aF11.533
aF11.384
aF11.219999999999999
aF11.504
aF11.5
aF11.362
aF11.218
aF11.67
aF11.533999999999999
aF11.648
aF11.501999999999999
aF11.218
aF11.509
aF11.386000000000001
aF11.506
aF11.674
aF11.506
aF11.381
asg11
(lp217
g13
(g17
S'\xdc\xc1\xe36\x1d\x01\x93@'
p218
tp219
Rp220
ag13
(g17
S'\x84\xd9_\xd1\xb0+\x92@'
p221
tp222
Rp223
ag13
(g17
S'\xf4\xab\xde\x86\x15|\x92@'
p224
tp225
Rp226
ag13
(g17
S'\x1a\xf0\x9e\xa89c\x92@'
p227
tp228
Rp229
ag13
(g17
S"\xa4'\x1b\xc5\x00\xf9\x92@"
p230
tp231
Rp232
ag13
(g17
S'fs\x8b\xaf\x8c\x1d\x92@'
p233
tp234
Rp235
ag13
(g17
S'fs\x8b\xaf\x8c\xdf\x91@'
p236
tp237
Rp238
ag13
(g17
S'\xda\xa8\xf3M\x87\xe5\x91@'
p239
tp240
Rp241
ag13
(g17
S'\xc8\x08\xf2\xfd\x8em\x92@'
p242
tp243
Rp244
ag13
(g17
S'\xda\xa8\xf3M\x87\xe5\x91@'
p245
tp246
Rp247
ag13
(g17
S'\xfcX\xc1o\xabr\x92@'
p248
tp249
Rp250
ag13
(g17
S'\xba\x11\x16\x15\xf9s\x92@'
p251
tp252
Rp253
ag13
(g17
S'T\x8ag\x1aV\xa9\x92@'
p254
tp255
Rp256
ag13
(g17
S'\x86\xc1F\xa3\xdc\xb1\x91@'
p257
tp258
Rp259
ag13
(g17
S'\xc8\x08\xf2\xfd\x8e\xab\x92@'
p260
tp261
Rp262
ag13
(g17
S',\x8f\xc9=p\xe5\x91@'
p263
tp264
Rp265
ag13
(g17
S'\xc2\xbe\xf8\xfd\x8e,\x92@'
p266
tp267
Rp268
ag13
(g17
S'\xa0\rT!\xa9%\x92@'
p269
tp270
Rp271
ag13
(g17
S'\x9c\xc3Z!\xa9\xe4\x91@'
p272
tp273
Rp274
ag13
(g17
S'p\xd7KS\xe4t\x92@'
p275
tp276
Rp277
asssS'./Data/Provider/ds101_ops_read.csv'
p278
(dp279
g3
(dp280
g5
(lp281
I0
aI0
aI0
aI0
aI0
aI0
aI0
aI0
aI0
aI0
aI0
aI0
aI0
aI0
aI0
aI0
aI0
aI0
aI0
aI0
asg7
(lp282
I34
aI29
aI35
aI35
aI25
aI33
aI79
aI37
aI36
aI22
aI25
aI35
aI47
aI34
aI37
aI18
aI36
aI16
aI49
aI54
asg9
(lp283
F69.926
aF49.68
aF51.226000000000006
aF56.759
aF53.504
aF58.035000000000004
aF18.823
aF56.03399999999999
aF58.616
aF68.57600000000001
aF48.275
aF56.654
aF27.456000000000003
aF49.594
aF57.617
aF84.723
aF53.025999999999996
aF89.676
aF26.277
aF27.021
asg11
(lp284
g13
(g17
S'\x16!\x9f\x04R\x88\xd2@'
p285
tp286
Rp287
ag13
(g17
S'\x1b\x14\xa4\x04B\xef\xc7@'
p288
tp289
Rp290
ag13
(g17
S'd\xdbq\x1c\x17\xdf\xd2@'
p291
tp292
Rp293
ag13
(g17
S'\x1f\xbdUU\x85\x1d\xd3@'
p294
tp295
Rp296
ag13
(g17
S'S\x8eM\x9b\x8e\xd8\xd0@'
p297
tp298
Rp299
ag13
(g17
S'j\xfe\xb1\xf3\x1f\xde\xd2@'
p300
tp301
Rp302
ag13
(g17
S'Tr\xd2$p\xe7\xc5@'
p303
tp304
Rp305
ag13
(g17
S'+\xb7r\xfe\x99\x1b\xd2@'
p306
tp307
Rp308
ag13
(g17
S'\x13\xf1\x94\x9d\xef\xdb\xd1@'
p309
tp310
Rp311
ag13
(g17
S'M\xee\x986]\xbc\xcd@'
p312
tp313
Rp314
ag13
(g17
S'\xf3"M\x9b\xae\x9d\xd0@'
p315
tp316
Rp317
ag13
(g17
S'\xb5\xbea\x05Mr\xd2@'
p318
tp319
Rp320
ag13
(g17
S'1\xabw\xb80n\xcd@'
p321
tp322
Rp323
ag13
(g17
S"\xf1o\xfa'\xdc5\xd2@"
p324
tp325
Rp326
ag13
(g17
S'2\xbc\xbc\xad\xc6\xf4\xd1@'
p327
tp328
Rp329
ag13
(g17
S'\xc0\xc8\xaa\x8c\x1d\xf8\xd0@'
p330
tp331
Rp332
ag13
(g17
S'5\xc7\x1c8s\x0b\xd2@'
p333
tp334
Rp335
ag13
(g17
S'\x88\x93\xfb\x1d\xdd\xce\xd4@'
p336
tp337
Rp338
ag13
(g17
S'\xcc;\x0c5\xa7\xe5\xc6@'
p339
tp340
Rp341
ag13
(g17
S'\x86iB\x87\xf0m\xcd@'
p342
tp343
Rp344
assg80
(dp345
g5
(lp346
I0
aI0
aI0
aI0
aI0
aI0
aI0
aI0
aI0
aI0
aI0
aI0
aI0
aI0
aI0
aI0
aI0
aI0
aI0
aI0
asg7
(lp347
I32
aI32
aI32
aI32
aI32
aI32
aI32
aI32
aI32
aI32
aI32
aI32
aI32
aI32
aI32
aI32
aI32
aI32
aI32
aI32
asg9
(lp348
F75.893
aF81.947
aF90.134
aF91.09
aF82.95700000000001
aF90.134
aF92.10000000000001
aF75.893
aF82.95700000000001
aF80.991
aF83.172
aF95.191
aF90.134
aF84.08200000000001
aF81.947
aF92.10000000000001
aF82.95700000000001
aF82.95700000000001
aF93.22500000000001
aF90.134
asg11
(lp349
g13
(g17
S'C$+;\x8f\xc5\xdf@'
p350
tp351
Rp352
ag13
(g17
S'w\xcaj:$2\xd8@'
p353
tp354
Rp355
ag13
(g17
S'R\x9d\xa3\xc8W\x88\xd8@'
p356
tp357
Rp358
ag13
(g17
S't\xd4\xc1\x8f\x89\x1f\xd8@'
p359
tp360
Rp361
ag13
(g17
S'\xb9E\x9aW\xf6\xad\xde@'
p362
tp363
Rp364
ag13
(g17
S'C$+;\x8f\xc5\xdf@'
p365
tp366
Rp367
ag13
(g17
S'R\x9d\xa3\xc8W\x88\xd8@'
p368
tp369
Rp370
ag13
(g17
S'\xdb|\xb8\x1e(E\xde@'
p371
tp372
Rp373
ag13
(g17
S'\x0b\xe5m:\xb4J\xd9@'
p374
tp375
Rp376
ag13
(g17
S'\xb9E\x9aW\xf6\xad\xde@'
p377
tp378
Rp379
ag13
(g17
S'w\xd4\xc1\x8fi\xf6\xd8@'
p380
tp381
Rp382
ag13
(g17
S't\xd4\xc1\x8f\x89\x1f\xd8@'
p383
tp384
Rp385
ag13
(g17
S'\x04\xaa\x7f\x90\xd4\xc5\xde@'
p386
tp387
Rp388
ag13
(g17
S'\xae\x13\x7f\x90d\x9a\xde@'
p389
tp390
Rp391
ag13
(g17
S'\xdb|\xb8\x1e(E\xde@'
p392
tp393
Rp394
ag13
(g17
S'C$+;\x8f\xc5\xdf@'
p395
tp396
Rp397
ag13
(g17
S'\xae\x13\x7f\x90d\x9a\xde@'
p398
tp399
Rp400
ag13
(g17
S'R\x9d\xa3\xc8W\x88\xd8@'
p401
tp402
Rp403
ag13
(g17
S'\x9b\x01\x89\x016\xa0\xd8@'
p404
tp405
Rp406
ag13
(g17
S'C$+;\x8f\xc5\xdf@'
p407
tp408
Rp409
assg146
(dp410
g5
(lp411
I0
aI0
aI0
aI0
aI0
aI0
aI0
aI0
aI0
aI0
aI0
aI0
aI0
aI0
aI0
aI0
aI0
aI0
aI0
aI0
asg7
(lp412
I420
aI420
aI420
aI420
aI420
aI420
aI420
aI420
aI420
aI420
aI420
aI420
aI420
aI420
aI420
aI420
aI420
aI420
aI420
aI420
asg9
(lp413
F7.35
aF7.35
aF7.35
aF7.35
aF7.35
aF7.35
aF7.35
aF7.35
aF7.35
aF7.35
aF7.35
aF7.35
aF7.35
aF7.35
aF7.35
aF7.35
aF7.35
aF7.35
aF7.35
aF7.35
asg11
(lp414
g13
(g17
S'\x19\xe5\xcb\xd1\xab\x93\xb0@'
p415
tp416
Rp417
ag13
(g17
S'\x19\xe5\xcb\xd1\xab\x93\xb0@'
p418
tp419
Rp420
ag13
(g17
S'\x19\xe5\xcb\xd1\xab\x93\xb0@'
p421
tp422
Rp423
ag13
(g17
S'\x19\xe5\xcb\xd1\xab\x93\xb0@'
p424
tp425
Rp426
ag13
(g17
S'\x19\xe5\xcb\xd1\xab\x93\xb0@'
p427
tp428
Rp429
ag13
(g17
S'\x19\xe5\xcb\xd1\xab\x93\xb0@'
p430
tp431
Rp432
ag13
(g17
S'\x19\xe5\xcb\xd1\xab\x93\xb0@'
p433
tp434
Rp435
ag13
(g17
S'\x19\xe5\xcb\xd1\xab\x93\xb0@'
p436
tp437
Rp438
ag13
(g17
S'\x19\xe5\xcb\xd1\xab\x93\xb0@'
p439
tp440
Rp441
ag13
(g17
S'\x19\xe5\xcb\xd1\xab\x93\xb0@'
p442
tp443
Rp444
ag13
(g17
S'\x19\xe5\xcb\xd1\xab\x93\xb0@'
p445
tp446
Rp447
ag13
(g17
S'\x19\xe5\xcb\xd1\xab\x93\xb0@'
p448
tp449
Rp450
ag13
(g17
S'\x19\xe5\xcb\xd1\xab\x93\xb0@'
p451
tp452
Rp453
ag13
(g17
S'\x19\xe5\xcb\xd1\xab\x93\xb0@'
p454
tp455
Rp456
ag13
(g17
S'\x19\xe5\xcb\xd1\xab\x93\xb0@'
p457
tp458
Rp459
ag13
(g17
S'\x19\xe5\xcb\xd1\xab\x93\xb0@'
p460
tp461
Rp462
ag13
(g17
S'\x19\xe5\xcb\xd1\xab\x93\xb0@'
p463
tp464
Rp465
ag13
(g17
S'\x19\xe5\xcb\xd1\xab\x93\xb0@'
p466
tp467
Rp468
ag13
(g17
S'\x19\xe5\xcb\xd1\xab\x93\xb0@'
p469
tp470
Rp471
ag13
(g17
S'\x19\xe5\xcb\xd1\xab\x93\xb0@'
p472
tp473
Rp474
assg212
(dp475
g5
(lp476
I0
aI0
aI0
aI0
aI0
aI0
aI0
aI0
aI0
aI0
aI0
aI0
aI0
aI0
aI0
aI0
aI0
aI0
aI0
aI0
asg7
(lp477
I372
aI372
aI372
aI372
aI372
aI372
aI372
aI372
aI372
aI372
aI372
aI372
aI372
aI372
aI372
aI372
aI372
aI372
aI372
aI372
asg9
(lp478
F7.202
aF7.202
aF7.202
aF7.202
aF7.202
aF7.202
aF7.202
aF7.202
aF7.202
aF7.202
aF7.202
aF7.202
aF7.202
aF7.202
aF7.202
aF7.202
aF7.202
aF7.202
aF7.202
aF7.202
asg11
(lp479
g13
(g17
S'p\x1e-RiO\xb0@'
p480
tp481
Rp482
ag13
(g17
S'p\x1e-RiO\xb0@'
p483
tp484
Rp485
ag13
(g17
S'p\x1e-RiO\xb0@'
p486
tp487
Rp488
ag13
(g17
S'p\x1e-RiO\xb0@'
p489
tp490
Rp491
ag13
(g17
S'p\x1e-RiO\xb0@'
p492
tp493
Rp494
ag13
(g17
S'p\x1e-RiO\xb0@'
p495
tp496
Rp497
ag13
(g17
S'p\x1e-RiO\xb0@'
p498
tp499
Rp500
ag13
(g17
S'p\x1e-RiO\xb0@'
p501
tp502
Rp503
ag13
(g17
S'p\x1e-RiO\xb0@'
p504
tp505
Rp506
ag13
(g17
S'p\x1e-RiO\xb0@'
p507
tp508
Rp509
ag13
(g17
S'p\x1e-RiO\xb0@'
p510
tp511
Rp512
ag13
(g17
S'p\x1e-RiO\xb0@'
p513
tp514
Rp515
ag13
(g17
S'p\x1e-RiO\xb0@'
p516
tp517
Rp518
ag13
(g17
S'p\x1e-RiO\xb0@'
p519
tp520
Rp521
ag13
(g17
S'p\x1e-RiO\xb0@'
p522
tp523
Rp524
ag13
(g17
S'p\x1e-RiO\xb0@'
p525
tp526
Rp527
ag13
(g17
S'p\x1e-RiO\xb0@'
p528
tp529
Rp530
ag13
(g17
S'p\x1e-RiO\xb0@'
p531
tp532
Rp533
ag13
(g17
S'p\x1e-RiO\xb0@'
p534
tp535
Rp536
ag13
(g17
S'p\x1e-RiO\xb0@'
p537
tp538
Rp539
asssS'./Data/Provider/ds101_rt_write.csv'
p540
(dp541
g3
(dp542
g5
(lp543
I0
aI0
aI0
aI0
aI0
aI0
aI0
aI0
aI0
aI0
aI0
aI0
aI0
aI0
aI0
aI0
aI0
aI0
aI0
aI0
asg7
(lp544
I32
aI25
aI26
aI24
aI24
aI31
aI16
aI31
aI25
aI30
aI30
aI24
aI24
aI16
aI24
aI34
aI30
aI31
aI53
aI26
asg9
(lp545
F32.096999999999994
aF24.302
aF30.673000000000002
aF23.909
aF32.96
aF31.77
aF28.314
aF31.776
aF25.368000000000002
aF30.226
aF30.669999999999998
aF20.9
aF24.371000000000002
aF28.310000000000002
aF20.990000000000002
aF25.704
aF31.946
aF30.459000000000003
aF6.343
aF32.736
asg11
(lp546
g13
(g17
S'a\xc8\xd2\x03\xb4\xa9\xa5@'
p547
tp548
Rp549
ag13
(g17
S'p\x90\x94\x1d\x8c\xf7\x9e@'
p550
tp551
Rp552
ag13
(g17
S'\xb4e\x02vT)\xa6@'
p553
tp554
Rp555
ag13
(g17
S'\xb7O\\\xc8\x1c\x95\xa1@'
p556
tp557
Rp558
ag13
(g17
S'\x98b\xbb9\x88\x85\x9c@'
p559
tp560
Rp561
ag13
(g17
S'\x9b\xbe\xb7L\xdaW\xa5@'
p562
tp563
Rp564
ag13
(g17
S'\x19t!\xda\x157\xa5@'
p565
tp566
Rp567
ag13
(g17
S'\x87c\xfa\xb1\xe1a\xa5@'
p568
tp569
Rp570
ag13
(g17
S'gv\x1fx\xff\xe6\x9e@'
p571
tp572
Rp573
ag13
(g17
S'U\xf1\xfcX\x97/\xa5@'
p574
tp575
Rp576
ag13
(g17
S'\xf5\xc4\xbe\x8d\x00G\xa5@'
p577
tp578
Rp579
ag13
(g17
S'.I\x96z\xef\x94\x9c@'
p580
tp581
Rp582
ag13
(g17
S':O#\xca\xea\xa4\xa2@'
p583
tp584
Rp585
ag13
(g17
S'w\xd0\xb2\x0f\x80\xe2\xa3@'
p586
tp587
Rp588
ag13
(g17
S'\x97\xf6\x93R@\x04\x9f@'
p589
tp590
Rp591
ag13
(g17
S'\xe3\x9b\xa6\xcf\x864\x9c@'
p592
tp593
Rp594
ag13
(g17
S'r\x9aOg\x9a8\xa5@'
p595
tp596
Rp597
ag13
(g17
S'7:S\x8d\x89+\xa5@'
p598
tp599
Rp600
ag13
(g17
S'\x0e\r\x07\x19s\xedz@'
p601
tp602
Rp603
ag13
(g17
S'\x05\x15\xea#=\xbb\xa5@'
p604
tp605
Rp606
assg80
(dp607
g5
(lp608
I0
aI0
aI0
aI0
aI0
aI0
aI0
aI0
aI0
aI0
aI0
aI0
aI0
aI0
aI0
aI0
aI0
aI0
aI0
aI0
asg7
(lp609
I32
aI32
aI32
aI32
aI32
aI32
aI32
aI32
aI32
aI32
aI32
aI32
aI32
aI32
aI32
aI32
aI32
aI32
aI32
aI32
asg9
(lp610
F48.465
aF46.182
aF104.346
aF46.182
aF97.937
aF95.653
aF104.346
aF48.465
aF46.182
aF95.653
aF48.465
aF48.465
aF106.26
aF104.346
aF47.307
aF48.465
aF106.26
aF46.182
aF48.465
aF104.346
asg11
(lp611
g13
(g17
S'>S\x86\xdc\xec\xa6\xac@'
p612
tp613
Rp614
ag13
(g17
S'\xb0\xb8\xbd\xacV\xee\xab@'
p615
tp616
Rp617
ag13
(g17
S'\ns\x826w\xf4\xb7@'
p618
tp619
Rp620
ag13
(g17
S'\xb0\xb8\xbd\xacV\xee\xab@'
p621
tp622
Rp623
ag13
(g17
S'\xe6+\x8aO\xe1^\xb9@'
p624
tp625
Rp626
ag13
(g17
S'\xb0\xb8\xbd\xacV\xee\xab@'
p627
tp628
Rp629
ag13
(g17
S'>S\x86\xdc\xec\xa6\xac@'
p630
tp631
Rp632
ag13
(g17
S'\xe6+\x8aO\xe1^\xb9@'
p633
tp634
Rp635
ag13
(g17
S'\xe6+\x8aO\xe1^\xb9@'
p636
tp637
Rp638
ag13
(g17
S'\xfa~\xb5\x93L\xa0\xaf@'
p639
tp640
Rp641
ag13
(g17
S'\xb0e3ft\xfe\xae@'
p642
tp643
Rp644
ag13
(g17
S'\ns\x826w\xf4\xb7@'
p645
tp646
Rp647
ag13
(g17
S'>S\x86\xdc\xec\xa6\xac@'
p648
tp649
Rp650
ag13
(g17
S'\xe6+\x8aO\xe1^\xb9@'
p651
tp652
Rp653
ag13
(g17
S'\xe6+\x8aO\xe1^\xb9@'
p654
tp655
Rp656
ag13
(g17
S'>S\x86\xdc\xec\xa6\xac@'
p657
tp658
Rp659
ag13
(g17
S'\ns\x826w\xf4\xb7@'
p660
tp661
Rp662
ag13
(g17
S'\xb0e3ft\xfe\xae@'
p663
tp664
Rp665
ag13
(g17
S'\xfa~\xb5\x93L\xa0\xaf@'
p666
tp667
Rp668
ag13
(g17
S'>S\x86\xdc\xec\xa6\xac@'
p669
tp670
Rp671
assg146
(dp672
g5
(lp673
I0
aI0
aI0
aI0
aI0
aI0
aI0
aI0
aI0
aI0
aI0
aI0
aI0
aI0
aI0
aI0
aI0
aI0
aI0
aI0
asg7
(lp674
I420
aI420
aI420
aI420
aI420
aI420
aI420
aI420
aI420
aI420
aI420
aI420
aI420
aI420
aI420
aI420
aI420
aI420
aI420
aI420
asg9
(lp675
F3.576
aF3.576
aF3.576
aF3.576
aF3.576
aF3.576
aF3.576
aF3.576
aF3.576
aF3.576
aF3.576
aF3.576
aF3.576
aF3.576
aF3.576
aF3.576
aF3.576
aF3.576
aF3.576
aF3.576
asg11
(lp676
g13
(g17
S'x\x11Ut\xbb>l@'
p677
tp678
Rp679
ag13
(g17
S'x\x11Ut\xbb>l@'
p680
tp681
Rp682
ag13
(g17
S'x\x11Ut\xbb>l@'
p683
tp684
Rp685
ag13
(g17
S'x\x11Ut\xbb>l@'
p686
tp687
Rp688
ag13
(g17
S'x\x11Ut\xbb>l@'
p689
tp690
Rp691
ag13
(g17
S'x\x11Ut\xbb>l@'
p692
tp693
Rp694
ag13
(g17
S'x\x11Ut\xbb>l@'
p695
tp696
Rp697
ag13
(g17
S'x\x11Ut\xbb>l@'
p698
tp699
Rp700
ag13
(g17
S'x\x11Ut\xbb>l@'
p701
tp702
Rp703
ag13
(g17
S'x\x11Ut\xbb>l@'
p704
tp705
Rp706
ag13
(g17
S'x\x11Ut\xbb>l@'
p707
tp708
Rp709
ag13
(g17
S'x\x11Ut\xbb>l@'
p710
tp711
Rp712
ag13
(g17
S'x\x11Ut\xbb>l@'
p713
tp714
Rp715
ag13
(g17
S'x\x11Ut\xbb>l@'
p716
tp717
Rp718
ag13
(g17
S'x\x11Ut\xbb>l@'
p719
tp720
Rp721
ag13
(g17
S'x\x11Ut\xbb>l@'
p722
tp723
Rp724
ag13
(g17
S'x\x11Ut\xbb>l@'
p725
tp726
Rp727
ag13
(g17
S'x\x11Ut\xbb>l@'
p728
tp729
Rp730
ag13
(g17
S'x\x11Ut\xbb>l@'
p731
tp732
Rp733
ag13
(g17
S'x\x11Ut\xbb>l@'
p734
tp735
Rp736
assg212
(dp737
g5
(lp738
I0
aI0
aI0
aI0
aI0
aI0
aI0
aI0
aI0
aI0
aI0
aI0
aI0
aI0
aI0
aI0
aI0
aI0
aI0
aI0
asg7
(lp739
I46
aI39
aI45
aI39
aI44
aI45
aI44
aI44
aI44
aI39
aI44
aI45
aI39
aI44
aI39
aI44
aI45
aI39
aI45
aI44
asg9
(lp740
F8.318
aF25.956000000000003
aF8.052
aF13.767
aF21.168
aF8.248999999999999
aF20.808
aF8.1
aF8.318
aF23.52
aF20.91
aF20.721999999999998
aF23.022000000000002
aF8.079
aF14.938
aF7.965999999999999
aF20.967
aF23.339
aF7.795000000000001
aF20.987000000000002
asg11
(lp741
g13
(g17
S'\xcfq\xe2i\x01\xad\x80@'
p742
tp743
Rp744
ag13
(g17
S'4~\xa7\xea"\xef\x86@'
p745
tp746
Rp747
ag13
(g17
S'\xc7\xb9$9\xbe\xb9\x80@'
p748
tp749
Rp750
ag13
(g17
S'\x1a\xb3\xba\x0f\xffW\x86@'
p751
tp752
Rp753
ag13
(g17
S'/\x0c`\xe3\x85\xe3\x80@'
p754
tp755
Rp756
ag13
(g17
S'\x87\x1f1\xb4Q\xba\x80@'
p757
tp758
Rp759
ag13
(g17
S'\x11$\xbe,\xa8\x81\x80@'
p760
tp761
Rp762
ag13
(g17
S'\xc7\xb9$9\xbe\xb9\x80@'
p763
tp764
Rp765
ag13
(g17
S'\x87zv\xd0A\xcd\xa1@'
p766
tp767
Rp768
ag13
(g17
S'\xc3\xa9A^.X\xa2@'
p769
tp770
Rp771
ag13
(g17
S'\x01\x93L52\xdc\xa1@'
p772
tp773
Rp774
ag13
(g17
S'\xc3_\x9b\xa6\x1e\xe6\xa1@'
p775
tp776
Rp777
ag13
(g17
S'\x1d\x11\xdf\xcb\x9d\x06\x83@'
p778
tp779
Rp780
ag13
(g17
S'\x0fKE[H\xe0\xa1@'
p781
tp782
Rp783
ag13
(g17
S'\xc8\x9a.\x17\x1b6\x88@'
p784
tp785
Rp786
ag13
(g17
S'\xc1b&\xb4Q\xdb\x80@'
p787
tp788
Rp789
ag13
(g17
S'v\xdd\x00\xd8\x03\xf4\xa1@'
p790
tp791
Rp792
ag13
(g17
S'\xb5\xcf\xcfy\xcec\xa2@'
p793
tp794
Rp795
ag13
(g17
S'\xa9\xf7\x8e\xf9t\x8e\x80@'
p796
tp797
Rp798
ag13
(g17
S'\x0e\r\xd5\xde\xfd\xe9\xa1@'
p799
tp800
Rp801
asssS'./Data/Provider/ds101_tp_read.csv'
p802
(dp803
g3
(dp804
g5
(lp805
I1
aI0
aI0
aI0
aI0
aI0
aI0
aI0
aI1
aI0
aI0
aI0
aI0
aI0
aI1
aI1
aI0
aI1
aI0
aI1
asg7
(lp806
I14
aI37
aI25
aI48
aI35
aI29
aI18
aI25
aI14
aI79
aI54
aI35
aI34
aI24
aI16
aI16
aI26
aI14
aI32
aI16
asg9
(lp807
F99.744
aF57.367999999999995
aF73.22
aF30.807000000000002
aF52.056000000000004
aF43.356
aF85.18599999999999
aF74.16199999999999
aF132.05
aF19.066
aF29.543000000000003
aF55.64
aF50.090999999999994
aF66.08800000000001
aF122.363
aF118.39699999999999
aF51.663000000000004
aF113.73200000000001
aF48.903999999999996
aF116.801
asg11
(lp808
g13
(g17
S'5\n\x90;3\x0b\xb3@'
p809
tp810
Rp811
ag13
(g17
S'\xf7\xd1\x92\x8f\x87G\xad@'
p812
tp813
Rp814
ag13
(g17
S'\xe2\xf5\xd5_\x17\xa9\xa3@'
p815
tp816
Rp817
ag13
(g17
S'E\xd0\xdae\xd0\x83\xa8@'
p818
tp819
Rp820
ag13
(g17
S'\xb1{\xc2w\xc2[\xad@'
p821
tp822
Rp823
ag13
(g17
S"\x10\x08\x1bn'}\xa1@"
p824
tp825
Rp826
ag13
(g17
S'7\x1e\x9a\xe9\xb7\n\xb1@'
p827
tp828
Rp829
ag13
(g17
S"%n\xfe'/}\xa8@"
p830
tp831
Rp832
ag13
(g17
S'nU\x93Y3p\xb4@'
p833
tp834
Rp835
ag13
(g17
S'\xe1\xde<\xa2T[\xa4@'
p836
tp837
Rp838
ag13
(g17
S'|P\x1a\xe1\xc8\xcf\xa7@'
p839
tp840
Rp841
ag13
(g17
S'b9\x02\xeb\x8eT\xac@'
p842
tp843
Rp844
ag13
(g17
S'\xaa\xd3\x93\x8f\xc7\xdc\xac@'
p845
tp846
Rp847
ag13
(g17
S'\xf0\x8bMV\xf5h\xa5@'
p848
tp849
Rp850
ag13
(g17
S'h\x07\xc7\xf2\xe5!\xb6@'
p851
tp852
Rp853
ag13
(g17
S'#\x8f\x8aF\x12)\xb5@'
p854
tp855
Rp856
ag13
(g17
S'\xca\xeb\xc3\xa5=0\xa6@'
p857
tp858
Rp859
ag13
(g17
S'k\xdc\x7f\x8a\x08\xee\xb3@'
p860
tp861
Rp862
ag13
(g17
S'\x87r\xc5l\x83\x8a\xa3@'
p863
tp864
Rp865
ag13
(g17
S'"\xf6\x19\x82\xc5u\xb5@'
p866
tp867
Rp868
assg80
(dp869
g5
(lp870
I0
aI0
aI0
aI0
aI0
aI0
aI0
aI0
aI0
aI0
aI0
aI0
aI0
aI0
aI0
aI0
aI0
aI0
aI0
aI0
asg7
(lp871
I32
aI32
aI32
aI32
aI32
aI32
aI32
aI32
aI32
aI32
aI32
aI32
aI32
aI32
aI32
aI32
aI32
aI32
aI32
aI32
asg9
(lp872
F87.006
aF85.32
aF110.26800000000001
aF109.103
aF110.789
aF109.103
aF86.485
aF88.17099999999999
aF102.687
aF86.485
aF111.954
aF88.17099999999999
aF86.485
aF86.485
aF111.954
aF111.954
aF109.103
aF110.26800000000001
aF110.789
aF85.32
asg11
(lp873
g13
(g17
S'\x9b\xfa\x99\xaa\xe4\xe5\xb4@'
p874
tp875
Rp876
ag13
(g17
S'?gz\xa5\x97\r\xc0@'
p877
tp878
Rp879
ag13
(g17
S'\x9b\xfa\x99\xaa\xe4\xe5\xb4@'
p880
tp881
Rp882
ag13
(g17
S'\x07\xf8\xe2\xc9\x87\x05\xc0@'
p883
tp884
Rp885
ag13
(g17
S'\x88\x1a\x94Od\x1d\xb5@'
p886
tp887
Rp888
ag13
(g17
S'\xcf\x9f\xf2\x8c\x85\xf9\xbf@'
p889
tp890
Rp891
ag13
(g17
S'\xed\xcb\x97\xec:\xc4\xb4@'
p892
tp893
Rp894
ag13
(g17
S'\x8c\x8e\xf8V,:\xc0@'
p895
tp896
Rp897
ag13
(g17
S'\x88\x1a\x94Od\x1d\xb5@'
p898
tp899
Rp900
ag13
(g17
S'\xcf\x9f\xf2\x8c\x85\xf9\xbf@'
p901
tp902
Rp903
ag13
(g17
S'\xf5\xc4R\xa8F\x94\xb4@'
p904
tp905
Rp906
ag13
(g17
S'5w\xf7wW)\xc0@'
p907
tp908
Rp909
ag13
(g17
S'\x88\x1a\x94Od\x1d\xb5@'
p910
tp911
Rp912
ag13
(g17
S'\xcf\x9f\xf2\x8c\x85\xf9\xbf@'
p913
tp914
Rp915
ag13
(g17
S'6I\x96\r\x0e?\xb5@'
p916
tp917
Rp918
ag13
(g17
S'\x8c\x8e\xf8V,:\xc0@'
p919
tp920
Rp921
ag13
(g17
S'6I\x96\r\x0e?\xb5@'
p922
tp923
Rp924
ag13
(g17
S'\x88\x1a\x94Od\x1d\xb5@'
p925
tp926
Rp927
ag13
(g17
S'6I\x96\r\x0e?\xb5@'
p928
tp929
Rp930
ag13
(g17
S']\xcd\xf8\xc6b\xeb\xbf@'
p931
tp932
Rp933
assg146
(dp934
g5
(lp935
I0
aI0
aI0
aI0
aI0
aI0
aI0
aI0
aI0
aI0
aI0
aI0
aI0
aI0
aI0
aI0
aI0
aI0
aI0
aI0
asg7
(lp936
I420
aI420
aI420
aI420
aI420
aI420
aI420
aI420
aI420
aI420
aI420
aI420
aI420
aI420
aI420
aI420
aI420
aI420
aI420
aI420
asg9
(lp937
F7.7299999999999995
aF7.7299999999999995
aF7.7299999999999995
aF7.7299999999999995
aF7.7299999999999995
aF7.7299999999999995
aF7.7299999999999995
aF7.7299999999999995
aF7.7299999999999995
aF7.7299999999999995
aF7.7299999999999995
aF7.7299999999999995
aF7.7299999999999995
aF7.7299999999999995
aF7.7299999999999995
aF7.7299999999999995
aF7.7299999999999995
aF7.7299999999999995
aF7.7299999999999995
aF7.7299999999999995
asg11
(lp938
g13
(g17
S'\xdb\xc7\x1f\x19\xc2\xef\x8a@'
p939
tp940
Rp941
ag13
(g17
S'\xdb\xc7\x1f\x19\xc2\xef\x8a@'
p942
tp943
Rp944
ag13
(g17
S'\xdb\xc7\x1f\x19\xc2\xef\x8a@'
p945
tp946
Rp947
ag13
(g17
S'\xdb\xc7\x1f\x19\xc2\xef\x8a@'
p948
tp949
Rp950
ag13
(g17
S'\xdb\xc7\x1f\x19\xc2\xef\x8a@'
p951
tp952
Rp953
ag13
(g17
S'\xdb\xc7\x1f\x19\xc2\xef\x8a@'
p954
tp955
Rp956
ag13
(g17
S'\xdb\xc7\x1f\x19\xc2\xef\x8a@'
p957
tp958
Rp959
ag13
(g17
S'\xdb\xc7\x1f\x19\xc2\xef\x8a@'
p960
tp961
Rp962
ag13
(g17
S'\xdb\xc7\x1f\x19\xc2\xef\x8a@'
p963
tp964
Rp965
ag13
(g17
S'\xdb\xc7\x1f\x19\xc2\xef\x8a@'
p966
tp967
Rp968
ag13
(g17
S'\xdb\xc7\x1f\x19\xc2\xef\x8a@'
p969
tp970
Rp971
ag13
(g17
S'\xdb\xc7\x1f\x19\xc2\xef\x8a@'
p972
tp973
Rp974
ag13
(g17
S'\xdb\xc7\x1f\x19\xc2\xef\x8a@'
p975
tp976
Rp977
ag13
(g17
S'\xdb\xc7\x1f\x19\xc2\xef\x8a@'
p978
tp979
Rp980
ag13
(g17
S'\xdb\xc7\x1f\x19\xc2\xef\x8a@'
p981
tp982
Rp983
ag13
(g17
S'\xdb\xc7\x1f\x19\xc2\xef\x8a@'
p984
tp985
Rp986
ag13
(g17
S'\xdb\xc7\x1f\x19\xc2\xef\x8a@'
p987
tp988
Rp989
ag13
(g17
S'\xdb\xc7\x1f\x19\xc2\xef\x8a@'
p990
tp991
Rp992
ag13
(g17
S'\xdb\xc7\x1f\x19\xc2\xef\x8a@'
p993
tp994
Rp995
ag13
(g17
S'\xdb\xc7\x1f\x19\xc2\xef\x8a@'
p996
tp997
Rp998
assg212
(dp999
g5
(lp1000
I0
aI0
aI0
aI0
aI0
aI0
aI0
aI0
aI0
aI0
aI0
aI0
aI0
aI0
aI0
aI0
aI0
aI0
aI0
aI0
asg7
(lp1001
I372
aI372
aI372
aI372
aI372
aI372
aI372
aI372
aI372
aI372
aI372
aI372
aI372
aI372
aI372
aI372
aI372
aI372
aI372
aI372
asg9
(lp1002
F7.607
aF7.607
aF7.607
aF7.607
aF7.607
aF7.607
aF7.607
aF7.607
aF7.607
aF7.607
aF7.607
aF7.607
aF7.607
aF7.607
aF7.607
aF7.607
aF7.607
aF7.607
aF7.607
aF7.607
asg11
(lp1003
g13
(g17
S'\x9d\x13\x0c\xcb=I\x8a@'
p1004
tp1005
Rp1006
ag13
(g17
S'\x9d\x13\x0c\xcb=I\x8a@'
p1007
tp1008
Rp1009
ag13
(g17
S'\x9d\x13\x0c\xcb=I\x8a@'
p1010
tp1011
Rp1012
ag13
(g17
S'\x9d\x13\x0c\xcb=I\x8a@'
p1013
tp1014
Rp1015
ag13
(g17
S'\x9d\x13\x0c\xcb=I\x8a@'
p1016
tp1017
Rp1018
ag13
(g17
S'\x9d\x13\x0c\xcb=I\x8a@'
p1019
tp1020
Rp1021
ag13
(g17
S'\x9d\x13\x0c\xcb=I\x8a@'
p1022
tp1023
Rp1024
ag13
(g17
S'\x9d\x13\x0c\xcb=I\x8a@'
p1025
tp1026
Rp1027
ag13
(g17
S'\x9d\x13\x0c\xcb=I\x8a@'
p1028
tp1029
Rp1030
ag13
(g17
S'\x9d\x13\x0c\xcb=I\x8a@'
p1031
tp1032
Rp1033
ag13
(g17
S'\x9d\x13\x0c\xcb=I\x8a@'
p1034
tp1035
Rp1036
ag13
(g17
S'\x9d\x13\x0c\xcb=I\x8a@'
p1037
tp1038
Rp1039
ag13
(g17
S'\x9d\x13\x0c\xcb=I\x8a@'
p1040
tp1041
Rp1042
ag13
(g17
S'\x9d\x13\x0c\xcb=I\x8a@'
p1043
tp1044
Rp1045
ag13
(g17
S'\x9d\x13\x0c\xcb=I\x8a@'
p1046
tp1047
Rp1048
ag13
(g17
S'\x9d\x13\x0c\xcb=I\x8a@'
p1049
tp1050
Rp1051
ag13
(g17
S'\x9d\x13\x0c\xcb=I\x8a@'
p1052
tp1053
Rp1054
ag13
(g17
S'\x9d\x13\x0c\xcb=I\x8a@'
p1055
tp1056
Rp1057
ag13
(g17
S'\x9d\x13\x0c\xcb=I\x8a@'
p1058
tp1059
Rp1060
ag13
(g17
S'\x9d\x13\x0c\xcb=I\x8a@'
p1061
tp1062
Rp1063
asssS'./Data/Provider/ds101_rt_read.csv'
p1064
(dp1065
g3
(dp1066
g5
(lp1067
I0
aI8
aI8
aI8
aI0
aI0
aI0
aI0
aI8
aI8
aI0
aI8
aI0
aI8
aI0
aI8
aI8
aI8
aI0
aI0
asg7
(lp1068
I37
aI17
aI17
aI25
aI17
aI17
aI17
aI26
aI16
aI16
aI17
aI16
aI17
aI16
aI17
aI14
aI17
aI16
aI24
aI17
asg9
(lp1069
F23.862
aF30.933
aF23.069
aF30.145
aF30.278
aF31.153
aF29.375
aF25.080000000000002
aF29.645
aF29.704000000000004
aF22.701999999999998
aF29.631999999999998
aF31.674999999999997
aF29.645
aF22.055
aF29.081000000000003
aF23.197000000000003
aF29.631999999999998
aF24.844
aF21.306
asg11
(lp1070
g13
(g17
S'6\x91\xfc5\x07\t\x86@'
p1071
tp1072
Rp1073
ag13
(g17
S'\xc9r\x86\xa0\xd2\xbc\x83@'
p1074
tp1075
Rp1076
ag13
(g17
S'\x03y\xb8\x15\xd9\xb2\x8c@'
p1077
tp1078
Rp1079
ag13
(g17
S' kp\xcf\xa1j\x8b@'
p1080
tp1081
Rp1082
ag13
(g17
S'\xac \xe5\xab\xd5\x9e\x8d@'
p1083
tp1084
Rp1085
ag13
(g17
S'\x88\x11\xa1\x95L\x10\x8c@'
p1086
tp1087
Rp1088
ag13
(g17
S'\xfe\x9b(S\x96\xf1\x83@'
p1089
tp1090
Rp1091
ag13
(g17
S'Ua+O\xfd\x03\x86@'
p1092
tp1093
Rp1094
ag13
(g17
S'9\x0b !\x8fq\x8b@'
p1095
tp1096
Rp1097
ag13
(g17
S'/C\xca\xec/\xdd\x8a@'
p1098
tp1099
Rp1100
ag13
(g17
S'\x80~2\x08\xe4-\x84@'
p1101
tp1102
Rp1103
ag13
(g17
S'/C\xca\xec/\xdd\x8a@'
p1104
tp1105
Rp1106
ag13
(g17
S'eU\xc6\xb7n\x8f\x8c@'
p1107
tp1108
Rp1109
ag13
(g17
S'7\x0b !\x8fq\x8b@'
p1110
tp1111
Rp1112
ag13
(g17
S'<\xa6\xff\xf6\x06<\x83@'
p1113
tp1114
Rp1115
ag13
(g17
S'\xb7\xed9\xb8\x85\x7f\x8a@'
p1116
tp1117
Rp1118
ag13
(g17
S'\xdcs\x05\x80\xbf\xe1\x83@'
p1119
tp1120
Rp1121
ag13
(g17
S'9\x0b !\x8fq\x8b@'
p1122
tp1123
Rp1124
ag13
(g17
S' \xd5\x1c\xc5~\xff\x85@'
p1125
tp1126
Rp1127
ag13
(g17
S'x\x88VY!\xfc\x83@'
p1128
tp1129
Rp1130
assg80
(dp1131
g5
(lp1132
I18
aI7
aI18
aI7
aI18
aI18
aI2
aI7
aI18
aI18
aI2
aI18
aI2
aI7
aI7
aI18
aI18
aI2
aI7
aI2
asg7
(lp1133
I32
aI32
aI32
aI32
aI32
aI32
aI32
aI32
aI32
aI32
aI32
aI32
aI32
aI32
aI32
aI32
aI32
aI32
aI32
aI32
asg9
(lp1134
F38.117000000000004
aF59.901
aF59.958999999999996
aF49.197
aF50.842
aF58.256
aF44.958
aF58.314
aF49.254999999999995
aF50.842
aF44.958
aF50.842
aF44.852
aF49.254999999999995
aF59.958999999999996
aF38.117000000000004
aF59.901
aF59.901
aF58.256
aF44.958
asg11
(lp1135
g13
(g17
S'\xc3\xbe\xbeR\x19d\x97@'
p1136
tp1137
Rp1138
ag13
(g17
S'\x96bX\x0f)\x8e\x93@'
p1139
tp1140
Rp1141
ag13
(g17
S'\x1dN\xaa\xc7G\xb0\x99@'
p1142
tp1143
Rp1144
ag13
(g17
S'\xb0\xc35\xca\x90d\x91@'
p1145
tp1146
Rp1147
ag13
(g17
S"'\x97\x8c\x84\xe2I\x94@"
p1148
tp1149
Rp1150
ag13
(g17
S'\x9e\x02\xe4t;\t\x92@'
p1151
tp1152
Rp1153
ag13
(g17
S'MSgb\xc0\xa4\x99@'
p1154
tp1155
Rp1156
ag13
(g17
S'\x9e\x02\xe4t;\t\x92@'
p1157
tp1158
Rp1159
ag13
(g17
S'\x04\xd6?\xc2w\xef\x97@'
p1160
tp1161
Rp1162
ag13
(g17
S'\x04\xd6?\xc2w\xef\x97@'
p1163
tp1164
Rp1165
ag13
(g17
S'\x96bX\x0f)\x8e\x93@'
p1166
tp1167
Rp1168
ag13
(g17
S'\x8ej\xe8\xd1\x1e0\x9a@'
p1169
tp1170
Rp1171
ag13
(g17
S'\x94\xb9\x01\xb8\xa0o\x97@'
p1172
tp1173
Rp1174
ag13
(g17
S'\x8ej\xe8\xd1\x1e0\x9a@'
p1175
tp1176
Rp1177
ag13
(g17
S'\xb0\xc35\xca\x90d\x91@'
p1178
tp1179
Rp1180
ag13
(g17
S'9X\xde\xd97\xa5\x93@'
p1181
tp1182
Rp1183
ag13
(g17
S'\xca\x8c\x12O\xf1`\x94@'
p1184
tp1185
Rp1186
ag13
(g17
S'MSgb\xc0\xa4\x99@'
p1187
tp1188
Rp1189
ag13
(g17
S'\xc3\xbe\xbeR\x19d\x97@'
p1190
tp1191
Rp1192
ag13
(g17
S'\x9e\x02\xe4t;\t\x92@'
p1193
tp1194
Rp1195
assg146
(dp1196
g5
(lp1197
I0
aI0
aI0
aI0
aI0
aI0
aI0
aI0
aI0
aI0
aI0
aI0
aI0
aI0
aI0
aI0
aI0
aI0
aI0
aI0
asg7
(lp1198
I420
aI420
aI420
aI420
aI420
aI420
aI420
aI420
aI420
aI420
aI420
aI420
aI420
aI420
aI420
aI420
aI420
aI420
aI420
aI420
asg9
(lp1199
F16.547
aF16.547
aF16.547
aF16.547
aF16.547
aF16.547
aF16.547
aF16.547
aF16.547
aF16.547
aF16.547
aF16.547
aF16.547
aF16.547
aF16.547
aF16.547
aF16.547
aF16.547
aF16.547
aF16.547
asg11
(lp1200
g13
(g17
S'\x92L\x7f\xdd\xc6j{@'
p1201
tp1202
Rp1203
ag13
(g17
S'\x92L\x7f\xdd\xc6j{@'
p1204
tp1205
Rp1206
ag13
(g17
S'\x92L\x7f\xdd\xc6j{@'
p1207
tp1208
Rp1209
ag13
(g17
S'\x92L\x7f\xdd\xc6j{@'
p1210
tp1211
Rp1212
ag13
(g17
S'\x92L\x7f\xdd\xc6j{@'
p1213
tp1214
Rp1215
ag13
(g17
S'\x92L\x7f\xdd\xc6j{@'
p1216
tp1217
Rp1218
ag13
(g17
S'\x92L\x7f\xdd\xc6j{@'
p1219
tp1220
Rp1221
ag13
(g17
S'\x92L\x7f\xdd\xc6j{@'
p1222
tp1223
Rp1224
ag13
(g17
S'\x92L\x7f\xdd\xc6j{@'
p1225
tp1226
Rp1227
ag13
(g17
S'\x92L\x7f\xdd\xc6j{@'
p1228
tp1229
Rp1230
ag13
(g17
S'\x92L\x7f\xdd\xc6j{@'
p1231
tp1232
Rp1233
ag13
(g17
S'\x92L\x7f\xdd\xc6j{@'
p1234
tp1235
Rp1236
ag13
(g17
S'\x92L\x7f\xdd\xc6j{@'
p1237
tp1238
Rp1239
ag13
(g17
S'\x92L\x7f\xdd\xc6j{@'
p1240
tp1241
Rp1242
ag13
(g17
S'\x92L\x7f\xdd\xc6j{@'
p1243
tp1244
Rp1245
ag13
(g17
S'\x92L\x7f\xdd\xc6j{@'
p1246
tp1247
Rp1248
ag13
(g17
S'\x92L\x7f\xdd\xc6j{@'
p1249
tp1250
Rp1251
ag13
(g17
S'\x92L\x7f\xdd\xc6j{@'
p1252
tp1253
Rp1254
ag13
(g17
S'\x92L\x7f\xdd\xc6j{@'
p1255
tp1256
Rp1257
ag13
(g17
S'\x92L\x7f\xdd\xc6j{@'
p1258
tp1259
Rp1260
assg212
(dp1261
g5
(lp1262
I0
aI0
aI0
aI0
aI0
aI0
aI0
aI0
aI0
aI0
aI0
aI0
aI0
aI0
aI0
aI0
aI0
aI0
aI0
aI0
asg7
(lp1263
I375
aI377
aI375
aI376
aI377
aI377
aI377
aI375
aI377
aI376
aI376
aI377
aI375
aI375
aI375
aI375
aI376
aI375
aI376
aI377
asg9
(lp1264
F16.897000000000002
aF16.897000000000002
aF16.897000000000002
aF16.897000000000002
aF16.897000000000002
aF16.897000000000002
aF16.897000000000002
aF16.897000000000002
aF16.897000000000002
aF16.897000000000002
aF16.897000000000002
aF16.897000000000002
aF16.897000000000002
aF16.897000000000002
aF16.897000000000002
aF16.897000000000002
aF16.897000000000002
aF16.897000000000002
aF16.897000000000002
aF16.897000000000002
asg11
(lp1265
g13
(g17
S'\xf6T\xda$\xf7\x14|@'
p1266
tp1267
Rp1268
ag13
(g17
S'\xf6T\xda$\xf7\x14|@'
p1269
tp1270
Rp1271
ag13
(g17
S'\xf6T\xda$\xf7\x14|@'
p1272
tp1273
Rp1274
ag13
(g17
S'\xf6T\xda$\xf7\x14|@'
p1275
tp1276
Rp1277
ag13
(g17
S'\xf6T\xda$\xf7\x14|@'
p1278
tp1279
Rp1280
ag13
(g17
S'\xf6T\xda$\xf7\x14|@'
p1281
tp1282
Rp1283
ag13
(g17
S'\xf6T\xda$\xf7\x14|@'
p1284
tp1285
Rp1286
ag13
(g17
S'\xf6T\xda$\xf7\x14|@'
p1287
tp1288
Rp1289
ag13
(g17
S'\xf6T\xda$\xf7\x14|@'
p1290
tp1291
Rp1292
ag13
(g17
S'\xf6T\xda$\xf7\x14|@'
p1293
tp1294
Rp1295
ag13
(g17
S'\xf6T\xda$\xf7\x14|@'
p1296
tp1297
Rp1298
ag13
(g17
S'\xf6T\xda$\xf7\x14|@'
p1299
tp1300
Rp1301
ag13
(g17
S'\xf6T\xda$\xf7\x14|@'
p1302
tp1303
Rp1304
ag13
(g17
S'\xf6T\xda$\xf7\x14|@'
p1305
tp1306
Rp1307
ag13
(g17
S'\xf6T\xda$\xf7\x14|@'
p1308
tp1309
Rp1310
ag13
(g17
S'\xf6T\xda$\xf7\x14|@'
p1311
tp1312
Rp1313
ag13
(g17
S'\xf6T\xda$\xf7\x14|@'
p1314
tp1315
Rp1316
ag13
(g17
S'\xf6T\xda$\xf7\x14|@'
p1317
tp1318
Rp1319
ag13
(g17
S'\xf6T\xda$\xf7\x14|@'
p1320
tp1321
Rp1322
ag13
(g17
S'\xf6T\xda$\xf7\x14|@'
p1323
tp1324
Rp1325
asssS'./Data/Provider/ds101_tp_write.csv'
p1326
(dp1327
g3
(dp1328
g5
(lp1329
I1
aI1
aI1
aI1
aI1
aI1
aI1
aI1
aI1
aI1
aI1
aI1
aI1
aI1
aI1
aI1
aI1
aI1
aI1
aI1
asg7
(lp1330
I24
aI58
aI24
aI26
aI27
aI24
aI27
aI35
aI26
aI25
aI26
aI27
aI25
aI24
aI26
aI24
aI26
aI26
aI26
aI24
asg9
(lp1331
F33.757
aF18.251
aF33.467999999999996
aF41.403
aF29.536
aF34.386
aF29.586000000000002
aF30.037000000000003
aF38.089
aF35.06
aF34.592
aF29.836000000000002
aF35.06
aF34.226
aF35.087
aF34.516999999999996
aF37.597
aF37.96
aF34.252
aF33.39
asg11
(lp1332
g13
(g17
S'\x0f\xb1\xeaA\xd3\x9d\x84@'
p1333
tp1334
Rp1335
ag13
(g17
S'W|KR\x1c\xb5y@'
p1336
tp1337
Rp1338
ag13
(g17
S'\x16I\xbb\xd1_"\x85@'
p1339
tp1340
Rp1341
ag13
(g17
S'jW2\x11\x90F\x86@'
p1342
tp1343
Rp1344
ag13
(g17
S'\x85\xf1&\x01\x92\xa5\x84@'
p1345
tp1346
Rp1347
ag13
(g17
S'\xdc\xb8\x83\xe0\xb2\xb3\x84@'
p1348
tp1349
Rp1350
ag13
(g17
S'V\xbd\xdb@Z%\x84@'
p1351
tp1352
Rp1353
ag13
(g17
S'\xe7\xed\x84n1=\x84@'
p1354
tp1355
Rp1356
ag13
(g17
S'3$\xa3\xda\xf2~\x8d@'
p1357
tp1358
Rp1359
ag13
(g17
S'h\x14&\xe7\x87F\x8d@'
p1360
tp1361
Rp1362
ag13
(g17
S'm\t}\xd9\x13B\x8a@'
p1363
tp1364
Rp1365
ag13
(g17
S'\x987\xc1\x16\x9f\xd2\x83@'
p1366
tp1367
Rp1368
ag13
(g17
S'\xc3^\x8b\x8a.<\x8d@'
p1369
tp1370
Rp1371
ag13
(g17
S'~k\x8at=\x82\x84@'
p1372
tp1373
Rp1374
ag13
(g17
S's\xb3\x1eB\x055\x86@'
p1375
tp1376
Rp1377
ag13
(g17
S'\xa3Na!Zr\x85@'
p1378
tp1379
Rp1380
ag13
(g17
S'3$\xa3\xda\xf2~\x8d@'
p1381
tp1382
Rp1383
ag13
(g17
S'f_\x16f\x1bi\x86@'
p1384
tp1385
Rp1386
ag13
(g17
S'\x03k\x0fZ\x83\x80\x8a@'
p1387
tp1388
Rp1389
ag13
(g17
S'\xa2Na!Zr\x85@'
p1390
tp1391
Rp1392
assg80
(dp1393
g5
(lp1394
I0
aI0
aI0
aI0
aI0
aI0
aI0
aI0
aI0
aI0
aI0
aI0
aI0
aI0
aI0
aI0
aI0
aI0
aI0
aI0
asg7
(lp1395
I32
aI32
aI32
aI32
aI32
aI32
aI32
aI32
aI32
aI32
aI32
aI32
aI32
aI32
aI32
aI32
aI32
aI32
aI32
aI32
asg9
(lp1396
F50.049
aF51.754
aF57.842000000000006
aF48.172
aF50.049
aF50.049
aF43.376999999999995
aF44.013000000000005
aF45.717
aF48.172
aF45.717
aF44.013000000000005
aF58.568
aF60.834999999999994
aF48.172
aF43.376999999999995
aF45.717
aF44.013000000000005
aF45.717
aF44.013000000000005
asg11
(lp1397
g13
(g17
S'-\xdaD\xaf\x8c+\x9a@'
p1398
tp1399
Rp1400
ag13
(g17
S':LT\x9fZ\x94\x98@'
p1401
tp1402
Rp1403
ag13
(g17
S'?qQDj\xff\x95@'
p1404
tp1405
Rp1406
ag13
(g17
S':LT\x9fZ\x94\x98@'
p1407
tp1408
Rp1409
ag13
(g17
S'?qQDj\xff\x95@'
p1410
tp1411
Rp1412
ag13
(g17
S'N\x04-\x01\x85b\x93@'
p1413
tp1414
Rp1415
ag13
(g17
S'\t\x81\xce7U|\x9b@'
p1416
tp1417
Rp1418
ag13
(g17
S'\xca\xfduq^\x9f\x9e@'
p1419
tp1420
Rp1421
ag13
(g17
S'a\xca\xc7\xbb\xa1\xae\x94@'
p1422
tp1423
Rp1424
ag13
(g17
S'\xd2\xa6\xa3I\xe1\x99\x99@'
p1425
tp1426
Rp1427
ag13
(g17
S'-\xdaD\xaf\x8c+\x9a@'
p1428
tp1429
Rp1430
ag13
(g17
S'k6\xacb\x8b\xca\x9f@'
p1431
tp1432
Rp1433
ag13
(g17
S'\t\x81\xce7U|\x9b@'
p1434
tp1435
Rp1436
ag13
(g17
S'a\xca\xc7\xbb\xa1\xae\x94@'
p1437
tp1438
Rp1439
ag13
(g17
S'\xac?kyw\xd7\x98@'
p1440
tp1441
Rp1442
ag13
(g17
S'a\xca\xc7\xbb\xa1\xae\x94@'
p1443
tp1444
Rp1445
ag13
(g17
S'\t\x81\xce7U|\x9b@'
p1446
tp1447
Rp1448
ag13
(g17
S'?qQDj\xff\x95@'
p1449
tp1450
Rp1451
ag13
(g17
S'?qQDj\xff\x95@'
p1452
tp1453
Rp1454
ag13
(g17
S'a\xca\xc7\xbb\xa1\xae\x94@'
p1455
tp1456
Rp1457
assg146
(dp1458
g5
(lp1459
I0
aI0
aI0
aI0
aI0
aI0
aI0
aI0
aI0
aI0
aI0
aI0
aI0
aI0
aI0
aI0
aI0
aI0
aI0
aI0
asg7
(lp1460
I420
aI420
aI420
aI420
aI420
aI420
aI420
aI420
aI420
aI420
aI420
aI420
aI420
aI420
aI420
aI420
aI420
aI420
aI420
aI420
asg9
(lp1461
F4.431
aF4.431
aF4.431
aF4.431
aF4.431
aF4.431
aF4.431
aF4.431
aF4.431
aF4.431
aF4.431
aF4.431
aF4.431
aF4.431
aF4.431
aF4.431
aF4.431
aF4.431
aF4.431
aF4.431
asg11
(lp1462
g13
(g17
S'R\x01\x07\x1f\xd0n`@'
p1463
tp1464
Rp1465
ag13
(g17
S'R\x01\x07\x1f\xd0n`@'
p1466
tp1467
Rp1468
ag13
(g17
S'R\x01\x07\x1f\xd0n`@'
p1469
tp1470
Rp1471
ag13
(g17
S'R\x01\x07\x1f\xd0n`@'
p1472
tp1473
Rp1474
ag13
(g17
S'R\x01\x07\x1f\xd0n`@'
p1475
tp1476
Rp1477
ag13
(g17
S'R\x01\x07\x1f\xd0n`@'
p1478
tp1479
Rp1480
ag13
(g17
S'R\x01\x07\x1f\xd0n`@'
p1481
tp1482
Rp1483
ag13
(g17
S'R\x01\x07\x1f\xd0n`@'
p1484
tp1485
Rp1486
ag13
(g17
S'R\x01\x07\x1f\xd0n`@'
p1487
tp1488
Rp1489
ag13
(g17
S'R\x01\x07\x1f\xd0n`@'
p1490
tp1491
Rp1492
ag13
(g17
S'R\x01\x07\x1f\xd0n`@'
p1493
tp1494
Rp1495
ag13
(g17
S'R\x01\x07\x1f\xd0n`@'
p1496
tp1497
Rp1498
ag13
(g17
S'R\x01\x07\x1f\xd0n`@'
p1499
tp1500
Rp1501
ag13
(g17
S'R\x01\x07\x1f\xd0n`@'
p1502
tp1503
Rp1504
ag13
(g17
S'R\x01\x07\x1f\xd0n`@'
p1505
tp1506
Rp1507
ag13
(g17
S'R\x01\x07\x1f\xd0n`@'
p1508
tp1509
Rp1510
ag13
(g17
S'R\x01\x07\x1f\xd0n`@'
p1511
tp1512
Rp1513
ag13
(g17
S'R\x01\x07\x1f\xd0n`@'
p1514
tp1515
Rp1516
ag13
(g17
S'R\x01\x07\x1f\xd0n`@'
p1517
tp1518
Rp1519
ag13
(g17
S'R\x01\x07\x1f\xd0n`@'
p1520
tp1521
Rp1522
assg212
(dp1523
g5
(lp1524
I5
aI5
aI5
aI5
aI5
aI1
aI1
aI1
aI5
aI5
aI1
aI1
aI1
aI5
aI1
aI5
aI1
aI1
aI5
aI5
asg7
(lp1525
I88
aI88
aI90
aI90
aI88
aI89
aI88
aI89
aI89
aI89
aI89
aI89
aI90
aI88
aI90
aI92
aI88
aI88
aI89
aI89
asg9
(lp1526
F11.692
aF11.709
aF11.413
aF11.413
aF11.483
aF11.675
aF11.72
aF11.690000000000001
aF11.975
aF11.956999999999999
aF11.72
aF11.762
aF11.516
aF11.704
aF11.521
aF11.537
aF11.858
aF11.926
aF11.509
aF11.729000000000001
asg11
(lp1527
g13
(g17
S'w\xcb\xc1\xab\xd6\xd1n@'
p1528
tp1529
Rp1530
ag13
(g17
S'\x9fH5\x8e\x96\x16o@'
p1531
tp1532
Rp1533
ag13
(g17
S'\xff\xcb6\xe9F\xe2m@'
p1534
tp1535
Rp1536
ag13
(g17
S'\xa3\x89\xa5\xb8\x82\xd1n@'
p1537
tp1538
Rp1539
ag13
(g17
S'\x9b[?\x02q\xb3n@'
p1540
tp1541
Rp1542
ag13
(g17
S'W\xbcL\xa5\xb3\xb2n@'
p1543
tp1544
Rp1545
ag13
(g17
S'#\xb5D\xbf\x8a8n@'
p1546
tp1547
Rp1548
ag13
(g17
S'\xdf\xb9\x90D\xa80n@'
p1549
tp1550
Rp1551
ag13
(g17
S'w\xdf\xb2\xbc\x1b\xd6o@'
p1552
tp1553
Rp1554
ag13
(g17
S'\xed\x8fop\x0b\x8cn@'
p1555
tp1556
Rp1557
ag13
(g17
S'u\xde\xcb\x1f\xb1nn@'
p1558
tp1559
Rp1560
ag13
(g17
S"\xd3G'\xe5\xfa\xbbn@"
p1561
tp1562
Rp1563
ag13
(g17
S'\xcd\x19\x14w\x13%n@'
p1564
tp1565
Rp1566
ag13
(g17
S'\x19K\xf1\xee\xa1\x98o@'
p1567
tp1568
Rp1569
ag13
(g17
S'\x8d\xe2\x8c\xc9a,o@'
p1570
tp1571
Rp1572
ag13
(g17
S'\x87\xbdL\xbe\x90An@'
p1573
tp1574
Rp1575
ag13
(g17
S'\x91\xe9\xd5\xa2\xc3\xe2n@'
p1576
tp1577
Rp1578
ag13
(g17
S'\xfb?\xe7k\x8f\xc8n@'
p1579
tp1580
Rp1581
ag13
(g17
S'\x7fP5\x7f^\xe3m@'
p1582
tp1583
Rp1584
ag13
(g17
S'\x9d"R\x96{Wn@'
p1585
tp1586
Rp1587
asss.