(dp0
S'/Users/viveknair/GIT/CloudP/Data/Client/collector.csv_AverageSLA'
p1
(dp2
S'RankProgressive'
p3
(dp4
S'min_rank'
p5
(lp6
I353
aI7
aI7
aI0
aI353
aI0
aI7
aI0
aI353
aI40
aI457
aI0
aI40
aI353
aI353
aI0
aI7
aI7
aI40
aI40
asS'training_size'
p7
(lp8
I21
aI20
aI20
aI53
aI20
aI53
aI20
aI53
aI20
aI15
aI19
aI51
aI15
aI20
aI22
aI76
aI20
aI20
aI46
aI15
asS'mmre'
p9
(lp10
F24.134
aF23.383000000000003
aF24.665
aF19.317
aF25.578
aF19.162000000000003
aF24.342
aF18.83
aF23.171
aF21.29
aF21.15
aF18.433
aF21.767
aF22.375999999999998
aF19.930999999999997
aF12.608
aF23.628
aF24.096999999999998
aF17.169999999999998
aF21.443
asS'abs_diff'
p11
(lp12
cnumpy.core.multiarray
scalar
p13
(cnumpy
dtype
p14
(S'f8'
p15
I0
I1
tp16
Rp17
(I3
S'<'
p18
NNNI-1
I-1
I0
tp19
bS'*I*4P\xde\xb4@'
p20
tp21
Rp22
ag13
(g17
S'\x84\xcf%\xa7+\x8a\xb6@'
p23
tp24
Rp25
ag13
(g17
S'\x85p\x07x\xb3\xe2\xb6@'
p26
tp27
Rp28
ag13
(g17
S'3\xa5\xe3Y\x89\x98\xb1@'
p29
tp30
Rp31
ag13
(g17
S'\xc1<\x89<\xbdT\xb6@'
p32
tp33
Rp34
ag13
(g17
S'\x05\x00o\xc8\xeeR\xb1@'
p35
tp36
Rp37
ag13
(g17
S'\xec\xc8}hE\x83\xb6@'
p38
tp39
Rp40
ag13
(g17
S'\xe1\xf7\x957NJ\xb1@'
p41
tp42
Rp43
ag13
(g17
S'\xe6\x9d\x1f(e\x8c\xb7@'
p44
tp45
Rp46
ag13
(g17
S'<B\x94)\x88T\xb4@'
p47
tp48
Rp49
ag13
(g17
S'AW\x00u\x05\xbc\xb5@'
p50
tp51
Rp52
ag13
(g17
S'\x81\xed\x8d\x7f\x91\xb3\xb0@'
p53
tp54
Rp55
ag13
(g17
S'\xb2\x04\xe8\xd9\x0cd\xb4@'
p56
tp57
Rp58
ag13
(g17
S'\xcf\x1e*\xe4\xf4\xdc\xb5@'
p59
tp60
Rp61
ag13
(g17
S'\x1b\xc5(\xa9\xe0\x9a\xb3@'
p62
tp63
Rp64
ag13
(g17
S'\x99\xeb)\xa4m\xaa\xa6@'
p65
tp66
Rp67
ag13
(g17
S'0^\x82\x8b\x0b\xf7\xb6@'
p68
tp69
Rp70
ag13
(g17
S'G\xec\xda*+\x07\xb7@'
p71
tp72
Rp73
ag13
(g17
S'`1\x1f\xbb~p\xb0@'
p74
tp75
Rp76
ag13
(g17
S'p\x11\xc5\x0b~0\xb4@'
p77
tp78
Rp79
assS'FactorialDesign'
p80
(dp81
g5
(lp82
I0
aI0
aI0
aI0
aI0
aI0
aI0
aI0
aI0
aI0
aI0
aI0
aI0
aI0
aI0
aI0
aI0
aI0
aI0
aI0
asg7
(lp83
I4096
aI4096
aI4096
aI4096
aI4096
aI4096
aI4096
aI4096
aI4096
aI4096
aI4096
aI4096
aI4096
aI4096
aI4096
aI4096
aI4096
aI4096
aI4096
aI4096
asg9
(lp84
F11.577
aF11.741
aF11.311
aF11.381
aF11.468
aF11.541
aF11.450000000000001
aF11.627
aF11.507000000000001
aF11.62
aF11.565
aF11.445
aF11.616999999999999
aF11.679
aF11.334
aF11.445
aF11.716
aF11.599
aF11.605
aF11.58
asg11
(lp85
g13
(g17
S'\x05\xee\xbaf\xad\x0c\xa5@'
p86
tp87
Rp88
ag13
(g17
S'ZZ\xf4\xe4\x80\x0b\xa5@'
p89
tp90
Rp91
ag13
(g17
S'Fu\xf8\x84l;\xa5@'
p92
tp93
Rp94
ag13
(g17
S'5sT\xe0HG\xa5@'
p95
tp96
Rp97
ag13
(g17
S'2d\xa6\x9f\x8b\xf6\xa4@'
p98
tp99
Rp100
ag13
(g17
S'\x91\xd0T\x81\ts\xa4@'
p101
tp102
Rp103
ag13
(g17
S'%\xde/\x86\x91\xe4\xa4@'
p104
tp105
Rp106
ag13
(g17
S's\x1d\x17\xc0S\xcc\xa4@'
p107
tp108
Rp109
ag13
(g17
S'@\xf7\xdc\xef\xc8\x05\xa5@'
p110
tp111
Rp112
ag13
(g17
S'M\xa9\x02\x88\x0c\x00\xa5@'
p113
tp114
Rp115
ag13
(g17
S'KF\xed:\x1f\xf4\xa4@'
p116
tp117
Rp118
ag13
(g17
S'w|\xc4n\xee\xc7\xa4@'
p119
tp120
Rp121
ag13
(g17
S'd;\xf0!\xa6\xfa\xa4@'
p122
tp123
Rp124
ag13
(g17
S'\x16\xa5\xb0\xc9\xac\xc1\xa4@'
p125
tp126
Rp127
ag13
(g17
S'U\x1eI\x1c\xf0s\xa5@'
p128
tp129
Rp130
ag13
(g17
S'\xde\xd60):\x89\xa4@'
p131
tp132
Rp133
ag13
(g17
S'\x1c\xb2\xb83cu\xa4@'
p134
tp135
Rp136
ag13
(g17
S'\xc2Gr\xa1\x17\xab\xa4@'
p137
tp138
Rp139
ag13
(g17
S'|\xd8I\x11\xac\x17\xa5@'
p140
tp141
Rp142
ag13
(g17
S'\x88\x1d\xeb\xea\x19\r\xa5@'
p143
tp144
Rp145
assS'UseAll'
p146
(dp147
g5
(lp148
I0
aI0
aI0
aI0
aI0
aI0
aI0
aI0
aI0
aI0
aI0
aI0
aI0
aI0
aI0
aI0
aI0
aI0
aI0
aI0
asg7
(lp149
I23548
aI23548
aI23548
aI23548
aI23548
aI23548
aI23548
aI23548
aI23548
aI23548
aI23548
aI23548
aI23548
aI23548
aI23548
aI23548
aI23548
aI23548
aI23548
aI23548
asg9
(lp150
F0.20600000000000002
aF0.20600000000000002
aF0.20400000000000001
aF0.20500000000000002
aF0.202
aF0.20400000000000001
aF0.203
aF0.2
aF0.20600000000000002
aF0.20600000000000002
aF0.20400000000000001
aF0.20600000000000002
aF0.21
aF0.203
aF0.20400000000000001
aF0.207
aF0.20600000000000002
aF0.20600000000000002
aF0.208
aF0.21
asg11
(lp151
g13
(g17
S'o\xc27\xeb{|D@'
p152
tp153
Rp154
ag13
(g17
S'U\x82B\x01\x9cpD@'
p155
tp156
Rp157
ag13
(g17
S'\x0b\x13\x8eT\xb4\xb9D@'
p158
tp159
Rp160
ag13
(g17
S'\x1bb\x8e\xb5)gD@'
p161
tp162
Rp163
ag13
(g17
S'\xb7\x1c\x04\xf1KBD@'
p164
tp165
Rp166
ag13
(g17
S'\x19\x7f\x0f\x10?\x93D@'
p167
tp168
Rp169
ag13
(g17
S']}\x98\xcf|xD@'
p170
tp171
Rp172
ag13
(g17
S'\xdf\xe5\x9eH@qD@'
p173
tp174
Rp175
ag13
(g17
S'/\x00c\xf9\xcadD@'
p176
tp177
Rp178
ag13
(g17
S'\xf9\xcfn\xd9\xf9AD@'
p179
tp180
Rp181
ag13
(g17
S'7{\x82\xadi\x10D@'
p182
tp183
Rp184
ag13
(g17
S'\x11\xad\xff\x18\xeerD@'
p185
tp186
Rp187
ag13
(g17
S'k\xb4\x0bp\xc4\xd1D@'
p188
tp189
Rp190
ag13
(g17
S']\xb8\x1a \xae\xc4D@'
p191
tp192
Rp193
ag13
(g17
S'Q\x11\x06\x13\x8b\x0bD@'
p194
tp195
Rp196
ag13
(g17
S'7\xbeM\x8f\x88\x15D@'
p197
tp198
Rp199
ag13
(g17
S'\x85\x83\xd6\x17O8D@'
p200
tp201
Rp202
ag13
(g17
S'\xab\xe5\xa2)\x822D@'
p203
tp204
Rp205
ag13
(g17
S'\xbb\xd5;\xa3\x1azD@'
p206
tp207
Rp208
ag13
(g17
S'/\xb3$\x89@xD@'
p209
tp210
Rp211
assS'MMREProgressive'
p212
(dp213
g5
(lp214
I0
aI0
aI0
aI0
aI0
aI0
aI0
aI0
aI0
aI0
aI0
aI0
aI0
aI0
aI0
aI0
aI0
aI0
aI0
aI0
asg7
(lp215
I195
aI213
aI215
aI195
aI195
aI195
aI195
aI195
aI195
aI195
aI195
aI195
aI195
aI195
aI195
aI213
aI195
aI195
aI195
aI195
asg9
(lp216
F9.912
aF9.685
aF9.281
aF9.913
aF9.315
aF9.6
aF9.798
aF9.735000000000001
aF9.622
aF9.546000000000001
aF9.479
aF9.617
aF10.197000000000001
aF9.614
aF9.459
aF9.266
aF9.461
aF9.775
aF9.8
aF9.568999999999999
asg11
(lp217
g13
(g17
S'\xddQe\xe6x\xab\xa2@'
p218
tp219
Rp220
ag13
(g17
S'\xf4L[\x1a%e\xa0@'
p221
tp222
Rp223
ag13
(g17
S'B\xee\xce\x18\xa2\x8d\xa0@'
p224
tp225
Rp226
ag13
(g17
S'\xdaU\x14\xa3A-\xa2@'
p227
tp228
Rp229
ag13
(g17
S'-\x13\xb4\xd5\xf1\x01\xa2@'
p230
tp231
Rp232
ag13
(g17
S'\x04\x1c\xd5\xd0\x11\x90\xa1@'
p233
tp234
Rp235
ag13
(g17
S'\xf3\x89U\xdd\xeb4\xa1@'
p236
tp237
Rp238
ag13
(g17
S'\xaa\xe9\xb1\xcf\xbc\x01\xa1@'
p239
tp240
Rp241
ag13
(g17
S'\xc4\xb6\x94\xaa\xf4\xda\xa0@'
p242
tp243
Rp244
ag13
(g17
S':\x002%J\xb3\xa2@'
p245
tp246
Rp247
ag13
(g17
S'\xd6\x81/c\xeb\xa3\xa0@'
p248
tp249
Rp250
ag13
(g17
S'5\xc6~I\x9eD\xa1@'
p251
tp252
Rp253
ag13
(g17
S'\xc0\x9b<\xc0MA\xa1@'
p254
tp255
Rp256
ag13
(g17
S'\x0f\x81.\xdb\x04\x85\xa0@'
p257
tp258
Rp259
ag13
(g17
S'j\x95\xdd\x08c\xb0\xa1@'
p260
tp261
Rp262
ag13
(g17
S'i\xc1;F\x86|\xa0@'
p263
tp264
Rp265
ag13
(g17
S'|V\xee\x18\xd2c\xa1@'
p266
tp267
Rp268
ag13
(g17
S'\x1a5\x91\xa3$C\xa1@'
p269
tp270
Rp271
ag13
(g17
S'G\xb6\xe8.m\x19\xa1@'
p272
tp273
Rp274
ag13
(g17
S'\x9e\xde\x8d6\xc2=\xa2@'
p275
tp276
Rp277
asss.