(dp0
S'/Users/viveknair/GIT/CloudP/Data/Client/collector.csv_AverageSLA'
p1
(dp2
S'RankProgressive'
p3
(dp4
S'min_rank'
p5
(lp6
I7
aI0
aI0
aI7
aI0
aI0
aI0
aI7
aI7
aI0
aI0
aI7
aI0
aI0
aI0
aI0
aI7
aI0
aI0
aI0
asS'training_size'
p7
(lp8
I21
aI54
aI52
aI21
aI81
aI163
aI54
aI21
aI21
aI53
aI52
aI21
aI53
aI86
aI223
aI54
aI21
aI91
aI53
aI139
asS'mmre'
p9
(lp10
F23.580000000000002
aF18.794
aF18.786
aF22.979
aF12.622
aF10.658
aF19.147
aF23.895
aF22.923
aF19.231
aF18.69
aF23.488999999999997
aF18.853
aF12.897
aF10.52
aF19.543
aF22.722
aF13.152
aF18.726000000000003
aF13.671
asS'abs_diff'
p11
(lp12
cnumpy.core.multiarray
scalar
p13
(cnumpy
dtype
p14
(S'f8'
p15
I0
I1
tp16
Rp17
(I3
S'<'
p18
NNNI-1
I-1
I0
tp19
bS'\xb2\x88+\xa3\x9a\xf7\xb6@'
p20
tp21
Rp22
ag13
(g17
S'\xb16\xa7\x10>U\xb1@'
p23
tp24
Rp25
ag13
(g17
S"\xd7\x1e\xc1'X\xf7\xb0@"
p26
tp27
Rp28
ag13
(g17
S'/\x04\xe7\n\xd8Y\xb5@'
p29
tp30
Rp31
ag13
(g17
S'\xad\xd7\xd4j*u\xa6@'
p32
tp33
Rp34
ag13
(g17
S'\x0f\x91\xe0\xf7K\xf6\xa2@'
p35
tp36
Rp37
ag13
(g17
S'\xfd\xf4d>Z\xe0\xb0@'
p38
tp39
Rp40
ag13
(g17
S'\xc1\xc3\x98\x8a\xc5\xfb\xb4@'
p41
tp42
Rp43
ag13
(g17
S'\xa1\x17M\xe5{ \xb6@'
p44
tp45
Rp46
ag13
(g17
S'\xef\xc7\x00\xce\xece\xb1@'
p47
tp48
Rp49
ag13
(g17
S'\xf20\xbe\x1en\xb4\xb0@'
p50
tp51
Rp52
ag13
(g17
S'\xe4Z8\xa6\xbeN\xb5@'
p53
tp54
Rp55
ag13
(g17
S'\xd2\xe9,\x13&>\xb1@'
p56
tp57
Rp58
ag13
(g17
S'Nv|\x05LU\xa7@'
p59
tp60
Rp61
ag13
(g17
S'\x99Z\xe6q\xc5\xf8\xa2@'
p62
tp63
Rp64
ag13
(g17
S'e+mk\x1c0\xb1@'
p65
tp66
Rp67
ag13
(g17
S'\xd7\xcd\xdb\x01/\xce\xb5@'
p68
tp69
Rp70
ag13
(g17
S'\xc4\x0e\xbeMq\xbe\xa7@'
p71
tp72
Rp73
ag13
(g17
S'-{\x80\x862\x94\xb1@'
p74
tp75
Rp76
ag13
(g17
S'5},\xc9\xb4O\xa9@'
p77
tp78
Rp79
asss.