(dp0
S'./Data/Provider/ds101_ops_write.csv'
p1
(dp2
S'RankProgressive'
p3
(dp4
S'min_rank'
p5
(lp6
I0
aI0
aI0
aI0
aI0
aI0
aI0
aI0
aI0
aI0
aI0
aI0
aI0
aI0
aI0
aI0
aI0
aI0
aI0
aI0
asS'training_size'
p7
(lp8
I23
aI40
aI30
aI14
aI56
aI39
aI30
aI43
aI23
aI34
aI30
aI38
aI29
aI34
aI41
aI26
aI29
aI44
aI36
aI28
asS'mmre'
p9
(lp10
F38.395
aF19.142
aF34.361999999999995
aF40.296
aF23.052
aF21.201999999999998
aF33.684
aF23.161
aF39.737
aF24.788
aF33.169
aF22.387999999999998
aF33.378
aF22.888
aF21.931
aF42.955
aF33.632
aF23.363
aF30.520000000000003
aF34.853
assS'UseAll'
p11
(dp12
g5
(lp13
I0
aI0
aI0
aI0
aI0
aI0
aI0
aI0
aI0
aI0
aI0
aI0
aI0
aI0
aI0
aI0
aI0
aI0
aI0
aI0
asg7
(lp14
I202
aI202
aI202
aI202
aI202
aI202
aI202
aI202
aI202
aI202
aI202
aI202
aI202
aI202
aI202
aI202
aI202
aI202
aI202
aI202
asg9
(lp15
F10.627
aF10.629
aF10.534
aF10.549
aF10.610999999999999
aF10.603
aF10.615
aF10.606
aF10.541
aF10.604
aF10.597
aF10.605
aF10.628
aF10.602
aF10.602
aF10.618
aF10.617
aF10.572
aF10.559000000000001
aF10.609
assS'FactorialDesign'
p16
(dp17
g5
(lp18
I0
aI0
aI0
aI0
aI0
aI0
aI0
aI0
aI0
aI0
aI0
aI0
aI0
aI0
aI0
aI0
aI0
aI0
aI0
aI0
asg7
(lp19
I32
aI32
aI32
aI32
aI32
aI32
aI32
aI32
aI32
aI32
aI32
aI32
aI32
aI32
aI32
aI32
aI32
aI32
aI32
aI32
asg9
(lp20
F45.632
aF45.632
aF48.876999999999995
aF48.876999999999995
aF45.788000000000004
aF48.876999999999995
aF52.044999999999995
aF52.281
aF44.842999999999996
aF53.909
aF47.558
aF37.238
aF52.044999999999995
aF39.164
aF53.909
aF52.281
aF55.657999999999994
aF52.281
aF52.370000000000005
aF52.281
assS'MMREProgressive'
p21
(dp22
g5
(lp23
I0
aI0
aI0
aI0
aI0
aI0
aI0
aI0
aI0
aI0
aI0
aI0
aI0
aI0
aI0
aI0
aI0
aI0
aI0
aI0
asg7
(lp24
I181
aI181
aI181
aI181
aI181
aI181
aI181
aI181
aI181
aI181
aI181
aI181
aI181
aI181
aI181
aI181
aI181
aI181
aI181
aI181
asg9
(lp25
F11.915000000000001
aF11.547
aF11.552
aF11.55
aF11.924
aF11.966000000000001
aF11.948
aF11.496
aF11.902
aF11.956999999999999
aF11.956999999999999
aF11.566
aF11.557
aF11.983
aF11.973
aF11.906
aF11.943
aF11.574
aF11.562999999999999
aF11.917
asssS'./Data/Provider/ds101_ops_read.csv'
p26
(dp27
g3
(dp28
g5
(lp29
I0
aI0
aI0
aI0
aI0
aI10
aI10
aI0
aI0
aI0
aI0
aI0
aI0
aI0
aI0
aI0
aI0
aI0
aI10
aI0
asg7
(lp30
I15
aI15
aI15
aI16
aI15
aI16
aI15
aI15
aI15
aI15
aI15
aI16
aI15
aI15
aI15
aI15
aI15
aI15
aI15
aI15
asg9
(lp31
F89.476
aF86.478
aF88.641
aF86.007
aF86.72999999999999
aF86.452
aF89.92099999999999
aF85.738
aF86.72999999999999
aF89.827
aF89.92099999999999
aF88.771
aF89.92099999999999
aF89.476
aF89.086
aF86.478
aF85.29299999999999
aF88.641
aF85.29299999999999
aF89.086
assg11
(dp32
g5
(lp33
I0
aI0
aI0
aI0
aI0
aI0
aI0
aI0
aI0
aI0
aI0
aI0
aI0
aI0
aI0
aI0
aI0
aI0
aI0
aI0
asg7
(lp34
I202
aI202
aI202
aI202
aI202
aI202
aI202
aI202
aI202
aI202
aI202
aI202
aI202
aI202
aI202
aI202
aI202
aI202
aI202
aI202
asg9
(lp35
F16.352
aF16.356
aF16.394000000000002
aF16.005
aF16.009999999999998
aF15.903
aF16.026
aF16.025
aF16.343
aF16.273
aF16.201999999999998
aF16.005
aF16.083
aF16.371
aF16.283
aF16.003999999999998
aF16.297
aF16.239
aF16.11
aF16.265
assg16
(dp36
g5
(lp37
I0
aI0
aI0
aI0
aI0
aI0
aI0
aI0
aI0
aI0
aI0
aI0
aI0
aI0
aI0
aI0
aI0
aI0
aI0
aI0
asg7
(lp38
I32
aI32
aI32
aI32
aI32
aI32
aI32
aI32
aI32
aI32
aI32
aI32
aI32
aI32
aI32
aI32
aI32
aI32
aI32
aI32
asg9
(lp39
F96.468
aF67.348
aF95.46
aF70.261
aF107.16300000000001
aF98.033
aF116.70100000000001
aF95.46
aF55.645
aF68.696
aF108.72800000000001
aF54.564
aF120.35499999999999
aF66.34
aF108.72800000000001
aF62.075
aF56.653
aF54.564
aF96.468
aF106.155
assg21
(dp40
g5
(lp41
I0
aI0
aI0
aI0
aI0
aI0
aI0
aI0
aI0
aI0
aI0
aI0
aI0
aI0
aI0
aI0
aI0
aI0
aI0
aI0
asg7
(lp42
I181
aI181
aI181
aI181
aI181
aI181
aI181
aI181
aI181
aI181
aI181
aI181
aI181
aI181
aI181
aI181
aI181
aI181
aI181
aI181
asg9
(lp43
F18.547
aF18.836
aF18.962
aF18.595
aF18.529
aF18.163
aF18.66
aF18.998
aF18.093
aF18.566
aF17.991
aF18.609
aF18.393
aF18.529999999999998
aF18.526
aF18.778
aF18.578
aF18.615000000000002
aF18.605
aF18.859
asssS'./Data/Provider/ds101_rt_write.csv'
p44
(dp45
g3
(dp46
g5
(lp47
I0
aI0
aI0
aI0
aI0
aI0
aI0
aI0
aI0
aI0
aI0
aI0
aI0
aI0
aI0
aI0
aI0
aI0
aI0
aI0
asg7
(lp48
I22
aI32
aI25
aI23
aI34
aI25
aI23
aI17
aI32
aI17
aI30
aI23
aI24
aI22
aI22
aI32
aI18
aI17
aI17
aI18
asg9
(lp49
F27.598
aF19.747999999999998
aF17.877000000000002
aF28.578
aF9.588000000000001
aF17.718
aF28.281
aF31.119000000000003
aF19.209
aF31.008999999999997
aF16.431
aF28.410999999999998
aF17.593
aF29.114
aF28.876
aF19.115
aF28.021
aF31.119000000000003
aF31.858999999999998
aF28.803
assg11
(dp50
g5
(lp51
I0
aI0
aI0
aI0
aI0
aI0
aI0
aI0
aI0
aI0
aI0
aI0
aI0
aI0
aI0
aI0
aI0
aI0
aI0
aI0
asg7
(lp52
I202
aI202
aI202
aI202
aI202
aI202
aI202
aI202
aI202
aI202
aI202
aI202
aI202
aI202
aI202
aI202
aI202
aI202
aI202
aI202
asg9
(lp53
F5.055
aF5.038
aF5.18
aF5.163
aF5.096
aF5.132
aF5.208
aF5.152
aF5.106
aF5.066
aF5.0889999999999995
aF5.192
aF5.154
aF5.164
aF5.221
aF5.12
aF5.191
aF5.241
aF5.169
aF5.188000000000001
assg16
(dp54
g5
(lp55
I0
aI0
aI0
aI0
aI0
aI0
aI0
aI0
aI0
aI0
aI0
aI0
aI0
aI0
aI0
aI0
aI0
aI0
aI0
aI0
asg7
(lp56
I32
aI32
aI32
aI32
aI32
aI32
aI32
aI32
aI32
aI32
aI32
aI32
aI32
aI32
aI32
aI32
aI32
aI32
aI32
aI32
asg9
(lp57
F42.762
aF42.762
aF31.2
aF31.2
aF47.836
aF33.213
aF37.114000000000004
aF31.2
aF37.145
aF31.169000000000004
aF33.213
aF31.701
aF37.145
aF37.145
aF33.213
aF35.132000000000005
aF33.213
aF33.213
aF31.2
aF32.435
assg21
(dp58
g5
(lp59
I0
aI0
aI0
aI0
aI0
aI0
aI0
aI0
aI0
aI0
aI0
aI0
aI0
aI0
aI0
aI0
aI0
aI0
aI0
aI0
asg7
(lp60
I54
aI54
aI57
aI55
aI57
aI53
aI54
aI56
aI53
aI59
aI57
aI55
aI58
aI61
aI58
aI54
aI63
aI61
aI58
aI58
asg9
(lp61
F6.144
aF9.155000000000001
aF8.437999999999999
aF7.959
aF10.299
aF6.264
aF10.638
aF10.07
aF9.075
aF10.335999999999999
aF9.357
aF8.63
aF9.562
aF8.637
aF6.018
aF7.391
aF9.334000000000001
aF10.962
aF8.479000000000001
aF7.063999999999999
asssS'./Data/Provider/ds101_tp_read.csv'
p62
(dp63
g3
(dp64
g5
(lp65
I0
aI10
aI0
aI0
aI0
aI0
aI10
aI10
aI0
aI0
aI10
aI0
aI10
aI0
aI10
aI10
aI0
aI0
aI0
aI10
asg7
(lp66
I15
aI15
aI15
aI15
aI16
aI15
aI15
aI16
aI15
aI15
aI15
aI16
aI15
aI15
aI16
aI15
aI16
aI15
aI16
aI16
asg9
(lp67
F86.477
aF86.084
aF87.306
aF86.473
aF86.965
aF86.477
aF83.95
aF84.199
aF83.11699999999999
aF82.736
aF86.088
aF85.75500000000001
aF86.084
aF84.336
aF82.985
aF83.125
aF85.744
aF84.346
aF82.974
aF86.965
assg11
(dp68
g5
(lp69
I0
aI0
aI0
aI0
aI0
aI0
aI0
aI0
aI0
aI0
aI0
aI0
aI0
aI0
aI0
aI0
aI0
aI0
aI0
aI0
asg7
(lp70
I202
aI202
aI202
aI202
aI202
aI202
aI202
aI202
aI202
aI202
aI202
aI202
aI202
aI202
aI202
aI202
aI202
aI202
aI202
aI202
asg9
(lp71
F16.461000000000002
aF16.451
aF16.433
aF16.561999999999998
aF16.477
aF16.334
aF16.353
aF16.528000000000002
aF16.483
aF16.406000000000002
aF16.389
aF16.482
aF16.473
aF16.475
aF16.317
aF16.414
aF16.477
aF16.381999999999998
aF16.509
aF16.441
assg16
(dp72
g5
(lp73
I0
aI0
aI0
aI0
aI0
aI0
aI0
aI0
aI0
aI0
aI0
aI0
aI0
aI0
aI0
aI0
aI0
aI0
aI0
aI0
asg7
(lp74
I32
aI32
aI32
aI32
aI32
aI32
aI32
aI32
aI32
aI32
aI32
aI32
aI32
aI32
aI32
aI32
aI32
aI32
aI32
aI32
asg9
(lp75
F66.01599999999999
aF84.787
aF84.787
aF80.762
aF54.730999999999995
aF54.730999999999995
aF50.705999999999996
aF73.502
aF66.01599999999999
aF67.403
aF50.705999999999996
aF50.705999999999996
aF84.787
aF54.730999999999995
aF86.17399999999999
aF73.502
aF67.403
aF54.730999999999995
aF73.502
aF54.730999999999995
assg21
(dp76
g5
(lp77
I0
aI0
aI0
aI0
aI0
aI0
aI0
aI0
aI0
aI0
aI0
aI0
aI0
aI0
aI0
aI0
aI0
aI0
aI0
aI0
asg7
(lp78
I181
aI181
aI181
aI181
aI181
aI181
aI181
aI181
aI181
aI181
aI181
aI181
aI181
aI181
aI181
aI181
aI181
aI181
aI181
aI181
asg9
(lp79
F18.306
aF18.886
aF18.802
aF18.26
aF18.378
aF18.735
aF18.22
aF18.315
aF18.481
aF18.759
aF18.196
aF18.244
aF18.87
aF18.847
aF18.783
aF18.801000000000002
aF18.676000000000002
aF18.42
aF18.656
aF18.793000000000003
asssS'./Data/Provider/ds101_rt_read.csv'
p80
(dp81
g3
(dp82
g5
(lp83
I0
aI0
aI0
aI0
aI0
aI0
aI0
aI0
aI0
aI0
aI0
aI0
aI0
aI0
aI0
aI0
aI0
aI0
aI0
aI0
asg7
(lp84
I35
aI20
aI15
aI15
aI38
aI38
aI22
aI20
aI14
aI32
aI16
aI23
aI20
aI20
aI20
aI50
aI58
aI14
aI20
aI14
asg9
(lp85
F35.026
aF39.647
aF35.213
aF36.315999999999995
aF38.326
aF32.589
aF37.028
aF39.668
aF33.364
aF35.741
aF31.14
aF40.506
aF33.632
aF33.632
aF39.647
aF30.835
aF27.967
aF33.257
aF37.077
aF33.671
assg11
(dp86
g5
(lp87
I0
aI0
aI0
aI0
aI0
aI0
aI0
aI0
aI0
aI0
aI0
aI0
aI0
aI0
aI0
aI0
aI0
aI0
aI0
aI0
asg7
(lp88
I202
aI202
aI202
aI202
aI202
aI202
aI202
aI202
aI202
aI202
aI202
aI202
aI202
aI202
aI202
aI202
aI202
aI202
aI202
aI202
asg9
(lp89
F19.287000000000003
aF19.078
aF19.021
aF19.243
aF19.012999999999998
aF19.1
aF19.123
aF19.209
aF19.104
aF18.972
aF18.971
aF19.141
aF19.331
aF19.187
aF19.075
aF19.206
aF19.107
aF19.067999999999998
aF19.083
aF19.009
assg16
(dp90
g5
(lp91
I0
aI0
aI0
aI0
aI0
aI0
aI0
aI0
aI0
aI0
aI0
aI0
aI0
aI0
aI0
aI0
aI0
aI0
aI0
aI0
asg7
(lp92
I32
aI32
aI32
aI32
aI32
aI32
aI32
aI32
aI32
aI32
aI32
aI32
aI32
aI32
aI32
aI32
aI32
aI32
aI32
aI32
asg9
(lp93
F48.393
aF73.874
aF67.721
aF63.949
aF72.684
aF63.949
aF51.592000000000006
aF45.367000000000004
aF48.193000000000005
aF51.219
aF58.76
aF69.384
aF63.307
aF73.17099999999999
aF50.392
aF51.193
aF54.643
aF68.721
aF61.123000000000005
aF66.706
assg21
(dp94
g5
(lp95
I0
aI0
aI0
aI0
aI0
aI0
aI0
aI0
aI0
aI0
aI0
aI0
aI0
aI0
aI0
aI0
aI0
aI0
aI0
aI0
asg7
(lp96
I181
aI181
aI181
aI181
aI181
aI181
aI181
aI181
aI181
aI181
aI181
aI181
aI181
aI181
aI181
aI181
aI181
aI181
aI181
aI181
asg9
(lp97
F20.116
aF20.136000000000003
aF19.633
aF19.701
aF20.153
aF20.321
aF19.544
aF20.318
aF20.316000000000003
aF20.112
aF19.618
aF20.339
aF19.428
aF20.197000000000003
aF19.585
aF19.481
aF20.114
aF19.52
aF19.57
aF19.714000000000002
asssS'./Data/Provider/ds101_tp_write.csv'
p98
(dp99
g3
(dp100
g5
(lp101
I0
aI0
aI0
aI0
aI0
aI0
aI0
aI0
aI0
aI0
aI0
aI0
aI0
aI0
aI0
aI0
aI0
aI0
aI0
aI0
asg7
(lp102
I23
aI16
aI23
aI23
aI23
aI23
aI35
aI38
aI16
aI28
aI23
aI55
aI16
aI41
aI23
aI23
aI23
aI23
aI29
aI23
asg9
(lp103
F46.977000000000004
aF38.092
aF43.347
aF43.768
aF41.839
aF42.455
aF30.297
aF26.619
aF38.001000000000005
aF34.891
aF38.536
aF18.439
aF37.96
aF18.873
aF42.968
aF41.839
aF46.857
aF46.105000000000004
aF35.642
aF42.769
assg11
(dp104
g5
(lp105
I0
aI0
aI0
aI0
aI0
aI0
aI0
aI0
aI0
aI0
aI0
aI0
aI0
aI0
aI0
aI0
aI0
aI0
aI0
aI0
asg7
(lp106
I202
aI202
aI202
aI202
aI202
aI202
aI202
aI202
aI202
aI202
aI202
aI202
aI202
aI202
aI202
aI202
aI202
aI202
aI202
aI202
asg9
(lp107
F11.032
aF10.989
aF10.994
aF11.065999999999999
aF10.996
aF10.989
aF10.987
aF11.01
aF11.026
aF10.977
aF11.008
aF11.082
aF11.014
aF11.007
aF10.997
aF11.048
aF11.006
aF11.055
aF11.07
aF11.023
assg16
(dp108
g5
(lp109
I0
aI0
aI0
aI0
aI0
aI0
aI0
aI0
aI0
aI0
aI0
aI0
aI0
aI0
aI0
aI0
aI0
aI0
aI0
aI0
asg7
(lp110
I32
aI32
aI32
aI32
aI32
aI32
aI32
aI32
aI32
aI32
aI32
aI32
aI32
aI32
aI32
aI32
aI32
aI32
aI32
aI32
asg9
(lp111
F51.849000000000004
aF37.175000000000004
aF44.846000000000004
aF51.86500000000001
aF54.347
aF51.849000000000004
aF43.849
aF44.830999999999996
aF43.714
aF51.86500000000001
aF52.101
aF54.347
aF44.846000000000004
aF54.362
aF51.849000000000004
aF51.849000000000004
aF45.747
aF44.830999999999996
aF45.747
aF51.849000000000004
assg21
(dp112
g5
(lp113
I0
aI0
aI0
aI0
aI0
aI0
aI0
aI0
aI0
aI0
aI0
aI0
aI0
aI0
aI0
aI0
aI0
aI0
aI0
aI0
asg7
(lp114
I123
aI122
aI129
aI134
aI120
aI155
aI163
aI124
aI139
aI124
aI163
aI138
aI135
aI145
aI121
aI130
aI125
aI165
aI123
aI163
asg9
(lp115
F15.387999999999998
aF15.734
aF14.383000000000001
aF14.074
aF16.363
aF14.432
aF12.458
aF15.629000000000001
aF14.646
aF16.137999999999998
aF12.33
aF15.046999999999999
aF14.892
aF14.435
aF16.634999999999998
aF15.146999999999998
aF14.863000000000001
aF12.394
aF15.004000000000001
aF11.895
asss.